
CH573F_TFT.elf:     file format elf32-littleriscv
CH573F_TFT.elf
architecture: riscv:rv32, flags 0x00000112:
EXEC_P, HAS_SYMS, D_PAGED
start address 0x00000000

Program Header:
    LOAD off    0x00001000 vaddr 0x00000000 paddr 0x00000000 align 2**12
         filesz 0x00000004 memsz 0x00000004 flags r-x
    LOAD off    0x00001800 vaddr 0x20003800 paddr 0x00000004 align 2**12
         filesz 0x00000688 memsz 0x00000688 flags r-x
    LOAD off    0x0000268c vaddr 0x0000068c paddr 0x0000068c align 2**12
         filesz 0x00003bc0 memsz 0x00003bc0 flags r-x
    LOAD off    0x00006e88 vaddr 0x20003e88 paddr 0x0000424c align 2**12
         filesz 0x00000000 memsz 0x00000178 flags rw-
    LOAD off    0x00007000 vaddr 0x20004000 paddr 0x0000424c align 2**12
         filesz 0x00000070 memsz 0x000000b8 flags rw-
    LOAD off    0x00007e00 vaddr 0x20007e00 paddr 0x20007e00 align 2**12
         filesz 0x00000000 memsz 0x00000200 flags rw-

Sections:
Idx Name            Size      VMA       LMA       File off  Algn  Flags
  0 .init           00000004  00000000  00000000  00001000  2**1  CONTENTS, ALLOC, LOAD, READONLY, CODE
  1 .highcodelalign 00000000  00000004  00000004  00007070  2**0  CONTENTS
  2 .highcode       00000688  20003800  00000004  00001800  2**1  CONTENTS, ALLOC, LOAD, READONLY, CODE
  3 .text           00003bc0  0000068c  0000068c  0000268c  2**2  CONTENTS, ALLOC, LOAD, READONLY, CODE
  4 .fini           00000000  0000424c  0000424c  00007070  2**0  CONTENTS, ALLOC, LOAD, CODE
  5 .dalign         00000178  20003e88  0000424c  00006e88  2**0  ALLOC
  6 .dlalign        00000000  0000424c  0000424c  00007070  2**0  CONTENTS
  7 .data           00000070  20004000  0000424c  00007000  2**2  CONTENTS, ALLOC, LOAD, DATA
  8 .bss            00000048  20004070  000042bc  00007070  2**2  ALLOC
  9 .stack          00000200  20007e00  20007e00  00007e00  2**0  ALLOC
 10 .debug_info     0000d81a  00000000  00000000  00007070  2**0  CONTENTS, READONLY, DEBUGGING
 11 .debug_abbrev   00001dda  00000000  00000000  0001488a  2**0  CONTENTS, READONLY, DEBUGGING
 12 .debug_loc      000045fe  00000000  00000000  00016664  2**0  CONTENTS, READONLY, DEBUGGING
 13 .debug_aranges  00000400  00000000  00000000  0001ac68  2**3  CONTENTS, READONLY, DEBUGGING
 14 .debug_ranges   00000640  00000000  00000000  0001b068  2**3  CONTENTS, READONLY, DEBUGGING
 15 .debug_line     00007cd0  00000000  00000000  0001b6a8  2**0  CONTENTS, READONLY, DEBUGGING
 16 .debug_str      000017d8  00000000  00000000  00023378  2**0  CONTENTS, READONLY, DEBUGGING
 17 .comment        00000033  00000000  00000000  00024b50  2**0  CONTENTS, READONLY
 18 .debug_frame    00001638  00000000  00000000  00024b84  2**2  CONTENTS, READONLY, DEBUGGING
 19 .stab           00000084  00000000  00000000  000261bc  2**2  CONTENTS, READONLY, DEBUGGING
 20 .stabstr        00000117  00000000  00000000  00026240  2**0  CONTENTS, READONLY, DEBUGGING
SYMBOL TABLE:
00000000 l    d  .init	00000000 .init
00000004 l    d  .highcodelalign	00000000 .highcodelalign
20003800 l    d  .highcode	00000000 .highcode
0000068c l    d  .text	00000000 .text
0000424c l    d  .fini	00000000 .fini
20003e88 l    d  .dalign	00000000 .dalign
0000424c l    d  .dlalign	00000000 .dlalign
20004000 l    d  .data	00000000 .data
20004070 l    d  .bss	00000000 .bss
20007e00 l    d  .stack	00000000 .stack
00000000 l    d  .debug_info	00000000 .debug_info
00000000 l    d  .debug_abbrev	00000000 .debug_abbrev
00000000 l    d  .debug_loc	00000000 .debug_loc
00000000 l    d  .debug_aranges	00000000 .debug_aranges
00000000 l    d  .debug_ranges	00000000 .debug_ranges
00000000 l    d  .debug_line	00000000 .debug_line
00000000 l    d  .debug_str	00000000 .debug_str
00000000 l    d  .comment	00000000 .comment
00000000 l    d  .debug_frame	00000000 .debug_frame
00000000 l    d  .stab	00000000 .stab
00000000 l    d  .stabstr	00000000 .stabstr
00000000 l    df *ABS*	00000000 ./Startup/startup_CH573.o
20003800 l       .highcode	00000000 _vector_base
00000000 l    df *ABS*	00000000 CH57x_sys.c
20004068 l     O .data	00000004 curbrk.3772
00000000 l    df *ABS*	00000000 ISP573.c
20003a9c l       .highcode	00000000 .loop17
20003aaa l       .highcode	00000000 .loop28
20003ab8 l       .highcode	00000000 .loop39
20003d46 l       .highcode	00000000 .loop406
00000000 l    df *ABS*	00000000 TFT_CAD.c
000007fe l     F .text	0000005a TFT_Draw_MultiPoint.part.0
00000000 l    df *ABS*	00000000 TFT_init.c
000011e2 l     F .text	00000046 TFT_Set_Direction
00000000 l    df *ABS*	00000000 TFT_io.c
0000177a l     F .text	00000014 TFT_Wait_DMA_Transfer_Complete
20004070 l     O .bss	00000004 g_tft_handles
00000000 l    df *ABS*	00000000 TFT_text.c
00000000 l    df *ABS*	00000000 Main.c
00000000 l    df *ABS*	00000000 CH57x_gpio.c
00000000 l    df *ABS*	00000000 CH57x_spi0.c
00000000 l    df *ABS*	00000000 CH57x_uart1.c
00000000 l    df *ABS*	00000000 malloc.c
00000000 l    df *ABS*	00000000 nano-mallocr.c
00000000 l    df *ABS*	00000000 nano-mallocr.c
00000000 l    df *ABS*	00000000 printf.c
00000000 l    df *ABS*	00000000 sbrkr.c
00000000 l    df *ABS*	00000000 findfp.c
0000252a l     F .text	0000006a std
00000000 l    df *ABS*	00000000 fwalk.c
00000000 l    df *ABS*	00000000 mlock.c
00000000 l    df *ABS*	00000000 nano-vfprintf.c
0000275e l     F .text	00000028 __sfputc_r
00000000 l    df *ABS*	00000000 nano-vfprintf_i.c
00000000 l    df *ABS*	00000000 stdio.c
00000000 l    df *ABS*	00000000 wbuf.c
00000000 l    df *ABS*	00000000 writer.c
00000000 l    df *ABS*	00000000 wsetup.c
00000000 l    df *ABS*	00000000 closer.c
00000000 l    df *ABS*	00000000 fflush.c
00000000 l    df *ABS*	00000000 lseekr.c
00000000 l    df *ABS*	00000000 makebuf.c
00000000 l    df *ABS*	00000000 memchr.c
00000000 l    df *ABS*	00000000 readr.c
00000000 l    df *ABS*	00000000 fstatr.c
00000000 l    df *ABS*	00000000 isattyr.c
00000000 l    df *ABS*	00000000 close.c
00000000 l    df *ABS*	00000000 fstat.c
00000000 l    df *ABS*	00000000 isatty.c
00000000 l    df *ABS*	00000000 lseek.c
00000000 l    df *ABS*	00000000 read.c
00000000 l    df *ABS*	00000000 font.c
00000000 l    df *ABS*	00000000 impure.c
20004000 l     O .data	00000060 impure_data
00000000 l    df *ABS*	00000000 reent.c
00003436 g     F .text	00000028 _isatty_r
000032a4 g     F .text	0000002c _lseek_r
20003ab8 g     F .highcode	0000000e FLASH_ROM_OUT
00001078 g     F .text	0000016a TFT_Fill_Ellipse
000017c8 g     F .text	0000000e TFT_Config_Display
000024c2 g     F .text	0000003e printf
20004860 g       .data	00000000 __global_pointer$
000017b2 g     F .text	00000016 TFT_Config_Pins
00002e9c g     F .text	00000036 __sseek
000025e4 g     F .text	0000006a __sinit
00002ed8 g     F .text	000000c2 __swbuf_r
20003a56 g     F .highcode	0000000e mDelayuS
20003a10  w    F .highcode	00000046 HardFault_Handler
0000259e g     F .text	00000046 __sfmoreglue
2000389c  w      .highcode	00000000 GPIOB_IRQHandler
0000275c g     F .text	00000002 __malloc_unlock
2000389a  w      .highcode	00000000 GPIOA_IRQHandler
20003894  w      .highcode	00000000 SysTick_Handler
20003890  w      .highcode	00000000 NMI_Handler
200038ac  w      .highcode	00000000 UART1_IRQHandler
000008ec g     F .text	00000056 TFT_Draw_Fast_HLine
00000bf6 g     F .text	0000017c TFT_Draw_Circle
0000340c g     F .text	0000002a _fstat_r
200040b4 g     O .bss	00000004 errno
20004070 g       .bss	00000000 _sbss
00000200 g       *ABS*	00000000 __stack_size
00001aa4 g     F .text	0000003a TFT_Write_Command
20003aaa g     F .highcode	0000000e FLASH_ROM_IN
200038aa  w      .highcode	00000000 UART0_IRQHandler
00001970 g     F .text	0000005c TFT_Buffer_Write16
00000858 g     F .text	00000024 TFT_Draw_Point
00002594 g     F .text	0000000a _cleanup_r
00000942 g     F .text	00000056 TFT_Draw_Fast_VLine
00002346 g     F .text	0000000a malloc
0000346a g     F .text	0000000c _fstat
00000004 g       .init	00000000 _einit
200038a0  w      .highcode	00000000 BB_IRQHandler
20003b46 g     F .highcode	00000340 FLASH_EEPROM_CMD
0000212a g     F .text	000000a6 GPIOB_ModeCfg
00002500 g     F .text	0000002a _sbrk_r
00000998 g     F .text	000001ce TFT_Draw_Line
00002202 g     F .text	00000050 SPI0_MasterDMATrans
20003898  w      .highcode	00000000 TMR0_IRQHandler
000033e0 g     F .text	0000002c _read_r
0000178e g     F .text	00000024 TFT_Init_Instance
00000eba g     F .text	000001be TFT_Draw_Ellipse
00004230 g     O .text	00000008 afont12x6
20003a8c g     F .highcode	00000010 FLASH_ROM_BEG
20003a64 g     F .highcode	00000028 mDelaymS
20007e00 g       .stack	00000000 _heap_end
000021d0 g     F .text	00000032 SPI0_MasterDefInit
00003476 g     F .text	0000000c _isatty
00004248 g     O .text	00000004 _global_impure_ptr
20003ac6 g     F .highcode	00000048 FLASH_ROM_ADDR
000022bc g     F .text	00000028 _sbrk
20004074 g     O .bss	00000004 SPI0
20004080 g     O .bss	00000034 htft1
0000087c g     F .text	00000070 TFT_Fill_Area
200038ae  w      .highcode	00000000 RTC_IRQHandler
200040b8 g       .bss	00000000 _ebss
00002314 g     F .text	00000032 UART1_DefInit
20003b0e g     F .highcode	00000038 FLASH_ROM_WAIT
00004194 g     O .text	00000020 __sf_fake_stderr
200038b6  w      .highcode	00000000 UART2_IRQHandler
00004238 g     O .text	00000008 afont16x8
200038b2  w      .highcode	00000000 PWMX_IRQHandler
00002786 g     F .text	00000042 __sfputs_r
000033c6 g     F .text	0000001a memchr
00002350 g     F .text	000000a4 _free_r
00004240 g     O .text	00000008 afont8x6
00000000 g       .init	00000000 _start
20004064 g     O .data	00000004 WIDTH
00003482 g     F .text	0000000c _lseek
00001bac g     F .text	0000013c TFT_Show_Char
00001856 g     F .text	00000040 TFT_Pin_CS_Set
200038b0  w      .highcode	00000000 ADC_IRQHandler
20003800 g       .highcode	00000000 _highcode_vma_start
000019cc g     F .text	00000008 TFT_Reset_Buffer
200038a8  w      .highcode	00000000 TMR2_IRQHandler
00003f00 g     O .text	00000228 ascii_8x6
000030d8 g     F .text	00000028 _close_r
20004000 g       .data	00000000 _data_vma
00000d72 g     F .text	00000148 TFT_Fill_Circle
0000194a g     F .text	00000026 TFT_Flush_Buffer
200038bc g     F .highcode	00000118 SetSysClock
200038a4  w      .highcode	00000000 USB_IRQHandler
00002fc8 g     F .text	00000110 __swsetup_r
0000264e g     F .text	000000a0 __sfp
00002e1e g     F .text	00000030 __sread
00001a2c g     F .text	00000038 TFT_Write_Data8
00000bd4 g     F .text	00000022 TFT_Fill_Rectangle
0000275a g     F .text	00000002 __malloc_lock
0000323e g     F .text	00000066 _fflush_r
000041b4 g     O .text	00000020 __sf_fake_stdin
00000756 g     F .text	000000a8 memset
00001d80 g     F .text	00000304 main
20004060 g     O .data	00000004 HEIGHT
00002ed2 g     F .text	00000006 __sclose
000023f4 g     F .text	000000ce _malloc_r
00001ce8 g     F .text	00000098 TFT_Show_String
00001550 g     F .text	0000022a TFT_Init_ST7789v3
00000004 g       .highcodelalign	00000000 _highcode_lma
000017d6 g     F .text	00000040 TFT_Pin_RES_Set
00001b98 g     F .text	00000014 TFT_RGB
000024c2 g     F .text	0000003e iprintf
200038a2  w      .highcode	00000000 LLE_IRQHandler
00001228 g     F .text	00000328 TFT_Init_ST7735S
00000000 g       .init	00000000 _sinit
00002f9a g     F .text	0000002e _write_r
0000349c g     O .text	00000474 ascii_12x6
00002a66 g     F .text	0000010c _printf_common
2000406c g     O .data	00000004 _impure_ptr
00003100 g     F .text	0000013e __sflush_r
00001a64 g     F .text	00000040 TFT_Write_Data16
200038ba  w      .highcode	00000000 WDOG_BAT_IRQHandler
200038b4  w      .highcode	00000000 TMR3_IRQHandler
000019d4 g     F .text	00000058 TFT_IO_Init
20008000 g       .stack	00000000 _eusrstack
20003896  w      .highcode	00000000 SW_Handler
00002084 g     F .text	000000a6 GPIOA_ModeCfg
00000b66 g     F .text	0000006e TFT_Draw_Rectangle
000032d0 g     F .text	00000058 __swhatbuf_r
00002252 g     F .text	00000042 GetSysClock
00002294 g     F .text	00000028 _write
20004070 g       .data	00000000 _edata
2000389e  w      .highcode	00000000 SPI0_IRQHandler
200040b8 g       .bss	00000000 _end
20003e88 g       .highcode	00000000 _highcode_vma_end
0000424c g       .dlalign	00000000 _data_lma
00003910 g     O .text	000005f0 ascii_16x8
00002e4e g     F .text	0000004e __swrite
000027c8 g     F .text	0000029e _vfiprintf_r
000026ee g     F .text	0000006c _fwalk_reent
00001ade g     F .text	000000ba TFT_Set_Address
000041d4 g     O .text	00000020 __sf_fake_stdout
0000348e g     F .text	0000000c _read
0000068c  w      .text	00000000 handle_reset
00003328 g     F .text	0000009e __smakebuf_r
00002b72 g     F .text	000002ac _printf_i
000018d6 g     F .text	00000074 TFT_SPI_Send
200038b8  w      .highcode	00000000 UART3_IRQHandler
2000407c g     O .bss	00000004 __malloc_sbrk_start
20003a9c g     F .highcode	0000000e FLASH_ROM_END
20004078 g     O .bss	00000004 __malloc_free_list
000027c8 g     F .text	0000029e _vfprintf_r
200038a6  w      .highcode	00000000 TMR1_IRQHandler
00001896 g     F .text	00000040 TFT_Pin_BLK_Set
200039d4 g     F .highcode	0000003c SYS_ResetExecute
00001816 g     F .text	00000040 TFT_Pin_DC_Set
0000345e g     F .text	0000000c _close
000022e4 g     F .text	00000030 UART1_BaudRateCfg



Disassembly of section .init:

00000000 <_sinit>:
_start():
d:\CH573FEVT\CH573F_TFT\obj/../Startup/startup_CH573.S:17

	.section	.init,"ax",@progbits
	.global	_start
	.align	1
_start:
	j	handle_reset
   0:	68c0006f          	j	68c <handle_reset>

Disassembly of section .highcode:

20003800 <_highcode_vma_start>:
	...
_vector_base():
d:\CH573FEVT\CH573F_TFT\obj/../Startup/startup_CH573.S:25
    .align  1
_vector_base:
    .option norvc;
    .word   0
    .word   0
        j   NMI_Handler                 /* NMI Handler */
20003808:	0880006f          	j	20003890 <NMI_Handler>
d:\CH573FEVT\CH573F_TFT\obj/../Startup/startup_CH573.S:26
        j   HardFault_Handler           /* Hard Fault Handler */
2000380c:	2040006f          	j	20003a10 <HardFault_Handler>
	...
d:\CH573FEVT\CH573F_TFT\obj/../Startup/startup_CH573.S:35
    .word   0
    .word   0
    .word   0
    .word   0
    .word   0
        j   SysTick_Handler            /* SysTick Handler */
20003830:	0640006f          	j	20003894 <SysTick_Handler>
20003834:	0000                	unimp
20003836:	0000                	unimp
d:\CH573FEVT\CH573F_TFT\obj/../Startup/startup_CH573.S:37
    .word   0
        j   SW_Handler                 /* SW Handler */
20003838:	05e0006f          	j	20003896 <SW_Handler>
2000383c:	0000                	unimp
2000383e:	0000                	unimp
d:\CH573FEVT\CH573F_TFT\obj/../Startup/startup_CH573.S:40
    .word   0
    /* External Interrupts */
        j   TMR0_IRQHandler            /* 0:  TMR0 */
20003840:	0580006f          	j	20003898 <TMR0_IRQHandler>
d:\CH573FEVT\CH573F_TFT\obj/../Startup/startup_CH573.S:41
        j   GPIOA_IRQHandler           /* GPIOA */
20003844:	0560006f          	j	2000389a <GPIOA_IRQHandler>
d:\CH573FEVT\CH573F_TFT\obj/../Startup/startup_CH573.S:42
        j   GPIOB_IRQHandler           /* GPIOB */
20003848:	0540006f          	j	2000389c <GPIOB_IRQHandler>
d:\CH573FEVT\CH573F_TFT\obj/../Startup/startup_CH573.S:43
        j   SPI0_IRQHandler            /* SPI0 */
2000384c:	0520006f          	j	2000389e <SPI0_IRQHandler>
d:\CH573FEVT\CH573F_TFT\obj/../Startup/startup_CH573.S:44
        j   BB_IRQHandler              /* BLEB */
20003850:	0500006f          	j	200038a0 <BB_IRQHandler>
d:\CH573FEVT\CH573F_TFT\obj/../Startup/startup_CH573.S:45
        j   LLE_IRQHandler             /* BLEL */
20003854:	04e0006f          	j	200038a2 <LLE_IRQHandler>
d:\CH573FEVT\CH573F_TFT\obj/../Startup/startup_CH573.S:46
        j   USB_IRQHandler             /* USB */
20003858:	04c0006f          	j	200038a4 <USB_IRQHandler>
2000385c:	0000                	unimp
2000385e:	0000                	unimp
d:\CH573FEVT\CH573F_TFT\obj/../Startup/startup_CH573.S:48
        .word   0
        j   TMR1_IRQHandler            /* TMR1 */
20003860:	0460006f          	j	200038a6 <TMR1_IRQHandler>
d:\CH573FEVT\CH573F_TFT\obj/../Startup/startup_CH573.S:49
        j   TMR2_IRQHandler            /* TMR2 */
20003864:	0440006f          	j	200038a8 <TMR2_IRQHandler>
d:\CH573FEVT\CH573F_TFT\obj/../Startup/startup_CH573.S:50
        j   UART0_IRQHandler           /* UART0 */
20003868:	0420006f          	j	200038aa <UART0_IRQHandler>
d:\CH573FEVT\CH573F_TFT\obj/../Startup/startup_CH573.S:51
        j   UART1_IRQHandler           /* UART1 */
2000386c:	0400006f          	j	200038ac <UART1_IRQHandler>
d:\CH573FEVT\CH573F_TFT\obj/../Startup/startup_CH573.S:52
        j   RTC_IRQHandler             /* RTC */
20003870:	03e0006f          	j	200038ae <RTC_IRQHandler>
d:\CH573FEVT\CH573F_TFT\obj/../Startup/startup_CH573.S:53
        j   ADC_IRQHandler             /* ADC */
20003874:	03c0006f          	j	200038b0 <ADC_IRQHandler>
20003878:	0000                	unimp
2000387a:	0000                	unimp
d:\CH573FEVT\CH573F_TFT\obj/../Startup/startup_CH573.S:55
        .word   0
        j   PWMX_IRQHandler            /* PWMX */
2000387c:	0360006f          	j	200038b2 <PWMX_IRQHandler>
d:\CH573FEVT\CH573F_TFT\obj/../Startup/startup_CH573.S:56
        j   TMR3_IRQHandler            /* TMR3 */
20003880:	0340006f          	j	200038b4 <TMR3_IRQHandler>
d:\CH573FEVT\CH573F_TFT\obj/../Startup/startup_CH573.S:57
        j   UART2_IRQHandler           /* UART2 */
20003884:	0320006f          	j	200038b6 <UART2_IRQHandler>
d:\CH573FEVT\CH573F_TFT\obj/../Startup/startup_CH573.S:58
        j   UART3_IRQHandler           /* UART3 */
20003888:	0300006f          	j	200038b8 <UART3_IRQHandler>
d:\CH573FEVT\CH573F_TFT\obj/../Startup/startup_CH573.S:59
        j   WDOG_BAT_IRQHandler        /* WDOG_BAT */
2000388c:	02e0006f          	j	200038ba <WDOG_BAT_IRQHandler>

20003890 <NMI_Handler>:
NMI_Handler():
d:\CH573FEVT\CH573F_TFT\obj/../Startup/startup_CH573.S:87
    .weak   TMR3_IRQHandler
    .weak   UART2_IRQHandler
    .weak   UART3_IRQHandler
    .weak   WDOG_BAT_IRQHandler

NMI_Handler:  1:  j 1b
20003890:	a001                	j	20003890 <NMI_Handler>
d:\CH573FEVT\CH573F_TFT\obj/../Startup/startup_CH573.S:88
HardFault_Handler:  1:  j 1b
20003892:	a001                	j	20003892 <NMI_Handler+0x2>

20003894 <SysTick_Handler>:
SysTick_Handler():
d:\CH573FEVT\CH573F_TFT\obj/../Startup/startup_CH573.S:89
SysTick_Handler:  1:  j 1b
20003894:	a001                	j	20003894 <SysTick_Handler>

20003896 <SW_Handler>:
SW_Handler():
d:\CH573FEVT\CH573F_TFT\obj/../Startup/startup_CH573.S:90
SW_Handler:  1:  j 1b
20003896:	a001                	j	20003896 <SW_Handler>

20003898 <TMR0_IRQHandler>:
TMR0_IRQHandler():
d:\CH573FEVT\CH573F_TFT\obj/../Startup/startup_CH573.S:91
TMR0_IRQHandler:  1:  j 1b
20003898:	a001                	j	20003898 <TMR0_IRQHandler>

2000389a <GPIOA_IRQHandler>:
GPIOA_IRQHandler():
d:\CH573FEVT\CH573F_TFT\obj/../Startup/startup_CH573.S:92
GPIOA_IRQHandler:  1:  j 1b
2000389a:	a001                	j	2000389a <GPIOA_IRQHandler>

2000389c <GPIOB_IRQHandler>:
GPIOB_IRQHandler():
d:\CH573FEVT\CH573F_TFT\obj/../Startup/startup_CH573.S:93
GPIOB_IRQHandler:  1:  j 1b
2000389c:	a001                	j	2000389c <GPIOB_IRQHandler>

2000389e <SPI0_IRQHandler>:
SPI0_IRQHandler():
d:\CH573FEVT\CH573F_TFT\obj/../Startup/startup_CH573.S:94
SPI0_IRQHandler:  1:  j 1b
2000389e:	a001                	j	2000389e <SPI0_IRQHandler>

200038a0 <BB_IRQHandler>:
BB_IRQHandler():
d:\CH573FEVT\CH573F_TFT\obj/../Startup/startup_CH573.S:95
BB_IRQHandler:  1:  j 1b
200038a0:	a001                	j	200038a0 <BB_IRQHandler>

200038a2 <LLE_IRQHandler>:
LLE_IRQHandler():
d:\CH573FEVT\CH573F_TFT\obj/../Startup/startup_CH573.S:96
LLE_IRQHandler:  1:  j 1b
200038a2:	a001                	j	200038a2 <LLE_IRQHandler>

200038a4 <USB_IRQHandler>:
USB_IRQHandler():
d:\CH573FEVT\CH573F_TFT\obj/../Startup/startup_CH573.S:97
USB_IRQHandler:  1:  j 1b
200038a4:	a001                	j	200038a4 <USB_IRQHandler>

200038a6 <TMR1_IRQHandler>:
TMR1_IRQHandler():
d:\CH573FEVT\CH573F_TFT\obj/../Startup/startup_CH573.S:98
TMR1_IRQHandler:  1:  j 1b
200038a6:	a001                	j	200038a6 <TMR1_IRQHandler>

200038a8 <TMR2_IRQHandler>:
TMR2_IRQHandler():
d:\CH573FEVT\CH573F_TFT\obj/../Startup/startup_CH573.S:99
TMR2_IRQHandler:  1:  j 1b
200038a8:	a001                	j	200038a8 <TMR2_IRQHandler>

200038aa <UART0_IRQHandler>:
UART0_IRQHandler():
d:\CH573FEVT\CH573F_TFT\obj/../Startup/startup_CH573.S:100
UART0_IRQHandler:  1:  j 1b
200038aa:	a001                	j	200038aa <UART0_IRQHandler>

200038ac <UART1_IRQHandler>:
UART1_IRQHandler():
d:\CH573FEVT\CH573F_TFT\obj/../Startup/startup_CH573.S:101
UART1_IRQHandler:  1:  j 1b
200038ac:	a001                	j	200038ac <UART1_IRQHandler>

200038ae <RTC_IRQHandler>:
RTC_IRQHandler():
d:\CH573FEVT\CH573F_TFT\obj/../Startup/startup_CH573.S:102
RTC_IRQHandler:  1:  j 1b
200038ae:	a001                	j	200038ae <RTC_IRQHandler>

200038b0 <ADC_IRQHandler>:
ADC_IRQHandler():
d:\CH573FEVT\CH573F_TFT\obj/../Startup/startup_CH573.S:103
ADC_IRQHandler:  1:  j 1b
200038b0:	a001                	j	200038b0 <ADC_IRQHandler>

200038b2 <PWMX_IRQHandler>:
PWMX_IRQHandler():
d:\CH573FEVT\CH573F_TFT\obj/../Startup/startup_CH573.S:104
PWMX_IRQHandler:  1:  j 1b
200038b2:	a001                	j	200038b2 <PWMX_IRQHandler>

200038b4 <TMR3_IRQHandler>:
TMR3_IRQHandler():
d:\CH573FEVT\CH573F_TFT\obj/../Startup/startup_CH573.S:105
TMR3_IRQHandler:  1:  j 1b
200038b4:	a001                	j	200038b4 <TMR3_IRQHandler>

200038b6 <UART2_IRQHandler>:
UART2_IRQHandler():
d:\CH573FEVT\CH573F_TFT\obj/../Startup/startup_CH573.S:106
UART2_IRQHandler:  1:  j 1b
200038b6:	a001                	j	200038b6 <UART2_IRQHandler>

200038b8 <UART3_IRQHandler>:
UART3_IRQHandler():
d:\CH573FEVT\CH573F_TFT\obj/../Startup/startup_CH573.S:107
UART3_IRQHandler:  1:  j 1b
200038b8:	a001                	j	200038b8 <UART3_IRQHandler>

200038ba <WDOG_BAT_IRQHandler>:
WDOG_BAT_IRQHandler():
d:\CH573FEVT\CH573F_TFT\obj/../Startup/startup_CH573.S:108
WDOG_BAT_IRQHandler:  1:  j 1b
200038ba:	a001                	j	200038ba <WDOG_BAT_IRQHandler>

200038bc <SetSysClock>:
sys_safe_access_enable():
d:/CH573FEVT/CH573F_TFT/StdPeriphDriver/inc/CH57x_sys.h:178
 * @NOTE: 进入安全访问模式后约16个系统主频周期都处于安全模式下，
 * 该有效期内可以改写一个或多个安全类寄存器，超出上述有效期后将自动终止安全模式。
 */
 __attribute__((always_inline)) static inline void sys_safe_access_enable(void)
{
    R8_SAFE_ACCESS_SIG = SAFE_ACCESS_SIG1;
200038bc:	400017b7          	lui	a5,0x40001
200038c0:	05700693          	li	a3,87
200038c4:	04d78023          	sb	a3,64(a5) # 40001040 <_eusrstack+0x1fff9040>
d:/CH573FEVT/CH573F_TFT/StdPeriphDriver/inc/CH57x_sys.h:179
    R8_SAFE_ACCESS_SIG = SAFE_ACCESS_SIG2;
200038c8:	fa800713          	li	a4,-88
200038cc:	04e78023          	sb	a4,64(a5)
d:/CH573FEVT/CH573F_TFT/StdPeriphDriver/inc/CH57x_sys.h:180
    asm volatile("fence.i");
200038d0:	0000100f          	fence.i
SetSysClock():
d:\CH573FEVT\CH573F_TFT\obj/../StdPeriphDriver/CH57x_sys.c:29
__attribute__((section(".highcode")))
void SetSysClock(SYS_CLKTypeDef sc)
{
    uint32_t i;
    sys_safe_access_enable();
    R8_PLL_CONFIG &= ~(1 << 5); //
200038d4:	04b7c603          	lbu	a2,75(a5)
200038d8:	0df67613          	andi	a2,a2,223
200038dc:	04c785a3          	sb	a2,75(a5)
sys_safe_access_disable():
d:/CH573FEVT/CH573F_TFT/StdPeriphDriver/inc/CH57x_sys.h:185
}

__attribute__((always_inline)) static inline void sys_safe_access_disable(void)
{
    R8_SAFE_ACCESS_SIG = 0;
200038e0:	04078023          	sb	zero,64(a5)
SetSysClock():
d:\CH573FEVT\CH573F_TFT\obj/../StdPeriphDriver/CH57x_sys.c:31
    sys_safe_access_disable();
    if(sc & 0x20)
200038e4:	02057613          	andi	a2,a0,32
200038e8:	ca3d                	beqz	a2,2000395e <SetSysClock+0xa2>
d:\CH573FEVT\CH573F_TFT\obj/../StdPeriphDriver/CH57x_sys.c:33
    { // HSE div
        if(!(R8_HFCK_PWR_CTRL & RB_CLK_XT32M_PON))
200038ea:	00a7c603          	lbu	a2,10(a5)
200038ee:	8a11                	andi	a2,a2,4
200038f0:	e21d                	bnez	a2,20003916 <SetSysClock+0x5a>
sys_safe_access_enable():
d:/CH573FEVT/CH573F_TFT/StdPeriphDriver/inc/CH57x_sys.h:178
    R8_SAFE_ACCESS_SIG = SAFE_ACCESS_SIG1;
200038f2:	04d78023          	sb	a3,64(a5)
d:/CH573FEVT/CH573F_TFT/StdPeriphDriver/inc/CH57x_sys.h:179
    R8_SAFE_ACCESS_SIG = SAFE_ACCESS_SIG2;
200038f6:	04e78023          	sb	a4,64(a5)
d:/CH573FEVT/CH573F_TFT/StdPeriphDriver/inc/CH57x_sys.h:180
    asm volatile("fence.i");
200038fa:	0000100f          	fence.i
SetSysClock():
d:\CH573FEVT\CH573F_TFT\obj/../StdPeriphDriver/CH57x_sys.c:36
        {
            sys_safe_access_enable();
            R8_HFCK_PWR_CTRL |= RB_CLK_XT32M_PON; // HSE power on
200038fe:	00a7c703          	lbu	a4,10(a5)
20003902:	00476713          	ori	a4,a4,4
20003906:	00e78523          	sb	a4,10(a5)
2000390a:	4b000793          	li	a5,1200
d:\CH573FEVT\CH573F_TFT\obj/../StdPeriphDriver/CH57x_sys.c:39 (discriminator 3)
            for(i = 0; i < 1200; i++)
            {
                __nop();
2000390e:	0001                	nop
d:\CH573FEVT\CH573F_TFT\obj/../StdPeriphDriver/CH57x_sys.c:40 (discriminator 3)
                __nop();
20003910:	0001                	nop
20003912:	17fd                	addi	a5,a5,-1
d:\CH573FEVT\CH573F_TFT\obj/../StdPeriphDriver/CH57x_sys.c:37 (discriminator 3)
            for(i = 0; i < 1200; i++)
20003914:	ffed                	bnez	a5,2000390e <SetSysClock+0x52>
sys_safe_access_enable():
d:/CH573FEVT/CH573F_TFT/StdPeriphDriver/inc/CH57x_sys.h:178
    R8_SAFE_ACCESS_SIG = SAFE_ACCESS_SIG1;
20003916:	400017b7          	lui	a5,0x40001
2000391a:	05700693          	li	a3,87
2000391e:	04d78023          	sb	a3,64(a5) # 40001040 <_eusrstack+0x1fff9040>
d:/CH573FEVT/CH573F_TFT/StdPeriphDriver/inc/CH57x_sys.h:179
    R8_SAFE_ACCESS_SIG = SAFE_ACCESS_SIG2;
20003922:	fa800713          	li	a4,-88
20003926:	04e78023          	sb	a4,64(a5)
d:/CH573FEVT/CH573F_TFT/StdPeriphDriver/inc/CH57x_sys.h:180
    asm volatile("fence.i");
2000392a:	0000100f          	fence.i
SetSysClock():
d:\CH573FEVT\CH573F_TFT\obj/../StdPeriphDriver/CH57x_sys.c:45
            }
        }

        sys_safe_access_enable();
        R16_CLK_SYS_CFG = (0 << 6) | (sc & 0x1f);
2000392e:	897d                	andi	a0,a0,31
20003930:	00a79423          	sh	a0,8(a5)
d:\CH573FEVT\CH573F_TFT\obj/../StdPeriphDriver/CH57x_sys.c:46
        __nop();
20003934:	0001                	nop
d:\CH573FEVT\CH573F_TFT\obj/../StdPeriphDriver/CH57x_sys.c:47
        __nop();
20003936:	0001                	nop
d:\CH573FEVT\CH573F_TFT\obj/../StdPeriphDriver/CH57x_sys.c:48
        __nop();
20003938:	0001                	nop
d:\CH573FEVT\CH573F_TFT\obj/../StdPeriphDriver/CH57x_sys.c:49
        __nop();
2000393a:	0001                	nop
sys_safe_access_disable():
d:/CH573FEVT/CH573F_TFT/StdPeriphDriver/inc/CH57x_sys.h:185
    R8_SAFE_ACCESS_SIG = 0;
2000393c:	04078023          	sb	zero,64(a5)
sys_safe_access_enable():
d:/CH573FEVT/CH573F_TFT/StdPeriphDriver/inc/CH57x_sys.h:178
    R8_SAFE_ACCESS_SIG = SAFE_ACCESS_SIG1;
20003940:	04d78023          	sb	a3,64(a5)
d:/CH573FEVT/CH573F_TFT/StdPeriphDriver/inc/CH57x_sys.h:179
    R8_SAFE_ACCESS_SIG = SAFE_ACCESS_SIG2;
20003944:	04e78023          	sb	a4,64(a5)
d:/CH573FEVT/CH573F_TFT/StdPeriphDriver/inc/CH57x_sys.h:180
    asm volatile("fence.i");
20003948:	0000100f          	fence.i
SetSysClock():
d:\CH573FEVT\CH573F_TFT\obj/../StdPeriphDriver/CH57x_sys.c:52
        sys_safe_access_disable();
        sys_safe_access_enable();
        R8_FLASH_CFG = 0X51;
2000394c:	40002737          	lui	a4,0x40002
20003950:	05100693          	li	a3,81
d:\CH573FEVT\CH573F_TFT\obj/../StdPeriphDriver/CH57x_sys.c:76
        __nop();
        __nop();
        __nop();
        sys_safe_access_disable();
        sys_safe_access_enable();
        R8_FLASH_CFG = 0X53;
20003954:	80d703a3          	sb	a3,-2041(a4) # 40001807 <_eusrstack+0x1fff9807>
sys_safe_access_disable():
d:/CH573FEVT/CH573F_TFT/StdPeriphDriver/inc/CH57x_sys.h:185
    R8_SAFE_ACCESS_SIG = 0;
20003958:	04078023          	sb	zero,64(a5)
SetSysClock():
d:\CH573FEVT\CH573F_TFT\obj/../StdPeriphDriver/CH57x_sys.c:79
        sys_safe_access_disable();
    }
}
2000395c:	8082                	ret
d:\CH573FEVT\CH573F_TFT\obj/../StdPeriphDriver/CH57x_sys.c:56
    else if(sc & 0x40)
2000395e:	04057613          	andi	a2,a0,64
20003962:	de6d                	beqz	a2,2000395c <SetSysClock+0xa0>
d:\CH573FEVT\CH573F_TFT\obj/../StdPeriphDriver/CH57x_sys.c:58
        if(!(R8_HFCK_PWR_CTRL & RB_CLK_PLL_PON))
20003964:	00a7c603          	lbu	a2,10(a5)
20003968:	8a41                	andi	a2,a2,16
2000396a:	e21d                	bnez	a2,20003990 <SetSysClock+0xd4>
sys_safe_access_enable():
d:/CH573FEVT/CH573F_TFT/StdPeriphDriver/inc/CH57x_sys.h:178
    R8_SAFE_ACCESS_SIG = SAFE_ACCESS_SIG1;
2000396c:	04d78023          	sb	a3,64(a5)
d:/CH573FEVT/CH573F_TFT/StdPeriphDriver/inc/CH57x_sys.h:179
    R8_SAFE_ACCESS_SIG = SAFE_ACCESS_SIG2;
20003970:	04e78023          	sb	a4,64(a5)
d:/CH573FEVT/CH573F_TFT/StdPeriphDriver/inc/CH57x_sys.h:180
    asm volatile("fence.i");
20003974:	0000100f          	fence.i
SetSysClock():
d:\CH573FEVT\CH573F_TFT\obj/../StdPeriphDriver/CH57x_sys.c:61
            R8_HFCK_PWR_CTRL |= RB_CLK_PLL_PON; // PLL power on
20003978:	00a7c703          	lbu	a4,10(a5)
2000397c:	01076713          	ori	a4,a4,16
20003980:	00e78523          	sb	a4,10(a5)
20003984:	7d000793          	li	a5,2000
d:\CH573FEVT\CH573F_TFT\obj/../StdPeriphDriver/CH57x_sys.c:64 (discriminator 3)
                __nop();
20003988:	0001                	nop
d:\CH573FEVT\CH573F_TFT\obj/../StdPeriphDriver/CH57x_sys.c:65 (discriminator 3)
                __nop();
2000398a:	0001                	nop
2000398c:	17fd                	addi	a5,a5,-1
d:\CH573FEVT\CH573F_TFT\obj/../StdPeriphDriver/CH57x_sys.c:62 (discriminator 3)
            for(i = 0; i < 2000; i++)
2000398e:	ffed                	bnez	a5,20003988 <SetSysClock+0xcc>
sys_safe_access_enable():
d:/CH573FEVT/CH573F_TFT/StdPeriphDriver/inc/CH57x_sys.h:178
    R8_SAFE_ACCESS_SIG = SAFE_ACCESS_SIG1;
20003990:	400017b7          	lui	a5,0x40001
20003994:	05700693          	li	a3,87
20003998:	04d78023          	sb	a3,64(a5) # 40001040 <_eusrstack+0x1fff9040>
d:/CH573FEVT/CH573F_TFT/StdPeriphDriver/inc/CH57x_sys.h:179
    R8_SAFE_ACCESS_SIG = SAFE_ACCESS_SIG2;
2000399c:	fa800713          	li	a4,-88
200039a0:	04e78023          	sb	a4,64(a5)
d:/CH573FEVT/CH573F_TFT/StdPeriphDriver/inc/CH57x_sys.h:180
    asm volatile("fence.i");
200039a4:	0000100f          	fence.i
SetSysClock():
d:\CH573FEVT\CH573F_TFT\obj/../StdPeriphDriver/CH57x_sys.c:69
        R16_CLK_SYS_CFG = (1 << 6) | (sc & 0x1f);
200039a8:	897d                	andi	a0,a0,31
200039aa:	04056513          	ori	a0,a0,64
200039ae:	00a79423          	sh	a0,8(a5)
d:\CH573FEVT\CH573F_TFT\obj/../StdPeriphDriver/CH57x_sys.c:70
        __nop();
200039b2:	0001                	nop
d:\CH573FEVT\CH573F_TFT\obj/../StdPeriphDriver/CH57x_sys.c:71
        __nop();
200039b4:	0001                	nop
d:\CH573FEVT\CH573F_TFT\obj/../StdPeriphDriver/CH57x_sys.c:72
        __nop();
200039b6:	0001                	nop
d:\CH573FEVT\CH573F_TFT\obj/../StdPeriphDriver/CH57x_sys.c:73
        __nop();
200039b8:	0001                	nop
sys_safe_access_disable():
d:/CH573FEVT/CH573F_TFT/StdPeriphDriver/inc/CH57x_sys.h:185
    R8_SAFE_ACCESS_SIG = 0;
200039ba:	04078023          	sb	zero,64(a5)
sys_safe_access_enable():
d:/CH573FEVT/CH573F_TFT/StdPeriphDriver/inc/CH57x_sys.h:178
    R8_SAFE_ACCESS_SIG = SAFE_ACCESS_SIG1;
200039be:	04d78023          	sb	a3,64(a5)
d:/CH573FEVT/CH573F_TFT/StdPeriphDriver/inc/CH57x_sys.h:179
    R8_SAFE_ACCESS_SIG = SAFE_ACCESS_SIG2;
200039c2:	04e78023          	sb	a4,64(a5)
d:/CH573FEVT/CH573F_TFT/StdPeriphDriver/inc/CH57x_sys.h:180
    asm volatile("fence.i");
200039c6:	0000100f          	fence.i
SetSysClock():
d:\CH573FEVT\CH573F_TFT\obj/../StdPeriphDriver/CH57x_sys.c:76
        R8_FLASH_CFG = 0X53;
200039ca:	40002737          	lui	a4,0x40002
200039ce:	05300693          	li	a3,83
200039d2:	b749                	j	20003954 <SetSysClock+0x98>

200039d4 <SYS_ResetExecute>:
SYS_ResetExecute():
d:\CH573FEVT\CH573F_TFT\obj/../StdPeriphDriver/CH57x_sys.c:141
 *
 * @return  none
 */
__attribute__((section(".highcode")))
void SYS_ResetExecute(void)
{
200039d4:	1141                	addi	sp,sp,-16
d:\CH573FEVT\CH573F_TFT\obj/../StdPeriphDriver/CH57x_sys.c:142
    FLASH_ROM_SW_RESET();
200039d6:	4681                	li	a3,0
200039d8:	4601                	li	a2,0
200039da:	4581                	li	a1,0
200039dc:	4511                	li	a0,4
d:\CH573FEVT\CH573F_TFT\obj/../StdPeriphDriver/CH57x_sys.c:141
{
200039de:	c606                	sw	ra,12(sp)
d:\CH573FEVT\CH573F_TFT\obj/../StdPeriphDriver/CH57x_sys.c:142
    FLASH_ROM_SW_RESET();
200039e0:	229d                	jal	20003b46 <FLASH_EEPROM_CMD>
sys_safe_access_enable():
d:/CH573FEVT/CH573F_TFT/StdPeriphDriver/inc/CH57x_sys.h:178
    R8_SAFE_ACCESS_SIG = SAFE_ACCESS_SIG1;
200039e2:	400017b7          	lui	a5,0x40001
200039e6:	05700713          	li	a4,87
200039ea:	04e78023          	sb	a4,64(a5) # 40001040 <_eusrstack+0x1fff9040>
d:/CH573FEVT/CH573F_TFT/StdPeriphDriver/inc/CH57x_sys.h:179
    R8_SAFE_ACCESS_SIG = SAFE_ACCESS_SIG2;
200039ee:	fa800713          	li	a4,-88
200039f2:	04e78023          	sb	a4,64(a5)
d:/CH573FEVT/CH573F_TFT/StdPeriphDriver/inc/CH57x_sys.h:180
    asm volatile("fence.i");
200039f6:	0000100f          	fence.i
SYS_ResetExecute():
d:\CH573FEVT\CH573F_TFT\obj/../StdPeriphDriver/CH57x_sys.c:144
    sys_safe_access_enable();
    R8_RST_WDOG_CTRL |= RB_SOFTWARE_RESET;
200039fa:	0467c703          	lbu	a4,70(a5)
200039fe:	00176713          	ori	a4,a4,1
20003a02:	04e78323          	sb	a4,70(a5)
sys_safe_access_disable():
d:/CH573FEVT/CH573F_TFT/StdPeriphDriver/inc/CH57x_sys.h:185
    R8_SAFE_ACCESS_SIG = 0;
20003a06:	04078023          	sb	zero,64(a5)
SYS_ResetExecute():
d:\CH573FEVT\CH573F_TFT\obj/../StdPeriphDriver/CH57x_sys.c:146
    sys_safe_access_disable();
}
20003a0a:	40b2                	lw	ra,12(sp)
20003a0c:	0141                	addi	sp,sp,16
20003a0e:	8082                	ret

20003a10 <HardFault_Handler>:
HardFault_Handler():
d:\CH573FEVT\CH573F_TFT\obj/../StdPeriphDriver/CH57x_sys.c:281
__attribute__((interrupt("WCH-Interrupt-fast")))
__attribute__((section(".highcode")))
__attribute__((weak))
void HardFault_Handler(void)
{
    FLASH_ROM_SW_RESET();
20003a10:	4681                	li	a3,0
20003a12:	4601                	li	a2,0
20003a14:	4581                	li	a1,0
20003a16:	4511                	li	a0,4
20003a18:	223d                	jal	20003b46 <FLASH_EEPROM_CMD>
sys_safe_access_enable():
d:/CH573FEVT/CH573F_TFT/StdPeriphDriver/inc/CH57x_sys.h:178
    R8_SAFE_ACCESS_SIG = SAFE_ACCESS_SIG1;
20003a1a:	400017b7          	lui	a5,0x40001
20003a1e:	05700693          	li	a3,87
20003a22:	04d78023          	sb	a3,64(a5) # 40001040 <_eusrstack+0x1fff9040>
d:/CH573FEVT/CH573F_TFT/StdPeriphDriver/inc/CH57x_sys.h:179
    R8_SAFE_ACCESS_SIG = SAFE_ACCESS_SIG2;
20003a26:	fa800713          	li	a4,-88
20003a2a:	04e78023          	sb	a4,64(a5)
d:/CH573FEVT/CH573F_TFT/StdPeriphDriver/inc/CH57x_sys.h:180
    asm volatile("fence.i");
20003a2e:	0000100f          	fence.i
HardFault_Handler():
d:\CH573FEVT\CH573F_TFT\obj/../StdPeriphDriver/CH57x_sys.c:283
    sys_safe_access_enable();
    R16_INT32K_TUNE = 0xFFFF;
20003a32:	567d                	li	a2,-1
20003a34:	02c79623          	sh	a2,44(a5)
sys_safe_access_enable():
d:/CH573FEVT/CH573F_TFT/StdPeriphDriver/inc/CH57x_sys.h:178
    R8_SAFE_ACCESS_SIG = SAFE_ACCESS_SIG1;
20003a38:	04d78023          	sb	a3,64(a5)
d:/CH573FEVT/CH573F_TFT/StdPeriphDriver/inc/CH57x_sys.h:179
    R8_SAFE_ACCESS_SIG = SAFE_ACCESS_SIG2;
20003a3c:	04e78023          	sb	a4,64(a5)
d:/CH573FEVT/CH573F_TFT/StdPeriphDriver/inc/CH57x_sys.h:180
    asm volatile("fence.i");
20003a40:	0000100f          	fence.i
HardFault_Handler():
d:\CH573FEVT\CH573F_TFT\obj/../StdPeriphDriver/CH57x_sys.c:285
    sys_safe_access_enable();
    R8_RST_WDOG_CTRL |= RB_SOFTWARE_RESET;
20003a44:	0467c703          	lbu	a4,70(a5)
20003a48:	00176713          	ori	a4,a4,1
20003a4c:	04e78323          	sb	a4,70(a5)
sys_safe_access_disable():
d:/CH573FEVT/CH573F_TFT/StdPeriphDriver/inc/CH57x_sys.h:185
    R8_SAFE_ACCESS_SIG = 0;
20003a50:	04078023          	sb	zero,64(a5)
HardFault_Handler():
d:\CH573FEVT\CH573F_TFT\obj/../StdPeriphDriver/CH57x_sys.c:287 (discriminator 1)
    sys_safe_access_disable();
    while(1);
20003a54:	a001                	j	20003a54 <HardFault_Handler+0x44>

20003a56 <mDelayuS>:
mDelayuS():
d:\CH573FEVT\CH573F_TFT\obj/../StdPeriphDriver/CH57x_sys.c:304
__attribute__((section(".highcode")))
void mDelayuS(uint16_t t)
{
    uint32_t i;
#if(FREQ_SYS == 60000000)
    i = t * 15;
20003a56:	47bd                	li	a5,15
20003a58:	02f50533          	mul	a0,a0,a5
d:\CH573FEVT\CH573F_TFT\obj/../StdPeriphDriver/CH57x_sys.c:326 (discriminator 1)
#elif(FREQ_SYS == 1000000)
    i = t >> 2;
#endif
    do
    {
        __nop();
20003a5c:	0001                	nop
d:\CH573FEVT\CH573F_TFT\obj/../StdPeriphDriver/CH57x_sys.c:327 (discriminator 1)
    } while(--i);
20003a5e:	157d                	addi	a0,a0,-1
20003a60:	fd75                	bnez	a0,20003a5c <mDelayuS+0x6>
d:\CH573FEVT\CH573F_TFT\obj/../StdPeriphDriver/CH57x_sys.c:328
}
20003a62:	8082                	ret

20003a64 <mDelaymS>:
mDelaymS():
d:\CH573FEVT\CH573F_TFT\obj/../StdPeriphDriver/CH57x_sys.c:341
 *
 * @return  none
 */
__attribute__((section(".highcode")))
void mDelaymS(uint16_t t)
{
20003a64:	1141                	addi	sp,sp,-16
20003a66:	c422                	sw	s0,8(sp)
20003a68:	c226                	sw	s1,4(sp)
20003a6a:	c606                	sw	ra,12(sp)
20003a6c:	84aa                	mv	s1,a0
d:\CH573FEVT\CH573F_TFT\obj/../StdPeriphDriver/CH57x_sys.c:344
    uint16_t i;

    for(i = 0; i < t; i++)
20003a6e:	4401                	li	s0,0
d:\CH573FEVT\CH573F_TFT\obj/../StdPeriphDriver/CH57x_sys.c:344 (discriminator 1)
20003a70:	00941763          	bne	s0,s1,20003a7e <mDelaymS+0x1a>
d:\CH573FEVT\CH573F_TFT\obj/../StdPeriphDriver/CH57x_sys.c:348
    {
        mDelayuS(1000);
    }
}
20003a74:	40b2                	lw	ra,12(sp)
20003a76:	4422                	lw	s0,8(sp)
20003a78:	4492                	lw	s1,4(sp)
20003a7a:	0141                	addi	sp,sp,16
20003a7c:	8082                	ret
d:\CH573FEVT\CH573F_TFT\obj/../StdPeriphDriver/CH57x_sys.c:344 (discriminator 3)
    for(i = 0; i < t; i++)
20003a7e:	0405                	addi	s0,s0,1
d:\CH573FEVT\CH573F_TFT\obj/../StdPeriphDriver/CH57x_sys.c:346 (discriminator 3)
        mDelayuS(1000);
20003a80:	3e800513          	li	a0,1000
d:\CH573FEVT\CH573F_TFT\obj/../StdPeriphDriver/CH57x_sys.c:344 (discriminator 3)
    for(i = 0; i < t; i++)
20003a84:	0442                	slli	s0,s0,0x10
d:\CH573FEVT\CH573F_TFT\obj/../StdPeriphDriver/CH57x_sys.c:346 (discriminator 3)
        mDelayuS(1000);
20003a86:	3fc1                	jal	20003a56 <mDelayuS>
d:\CH573FEVT\CH573F_TFT\obj/../StdPeriphDriver/CH57x_sys.c:344 (discriminator 3)
    for(i = 0; i < t; i++)
20003a88:	8041                	srli	s0,s0,0x10
20003a8a:	b7dd                	j	20003a70 <mDelaymS+0xc>

20003a8c <FLASH_ROM_BEG>:
FLASH_ROM_BEG():
20003a8c:	80040323          	sb	zero,-2042(s0)
20003a90:	4795                	li	a5,5
20003a92:	80f40323          	sb	a5,-2042(s0)
20003a96:	80a40223          	sb	a0,-2044(s0)
20003a9a:	8082                	ret

20003a9c <FLASH_ROM_END>:
FLASH_ROM_END():
20003a9c:	80640783          	lb	a5,-2042(s0)
20003aa0:	fe07cee3          	bltz	a5,20003a9c <FLASH_ROM_END>
20003aa4:	80040323          	sb	zero,-2042(s0)
20003aa8:	8082                	ret

20003aaa <FLASH_ROM_IN>:
FLASH_ROM_IN():
20003aaa:	80640783          	lb	a5,-2042(s0)
20003aae:	fe07cee3          	bltz	a5,20003aaa <FLASH_ROM_IN>
20003ab2:	80444503          	lbu	a0,-2044(s0)
20003ab6:	8082                	ret

20003ab8 <FLASH_ROM_OUT>:
FLASH_ROM_OUT():
20003ab8:	80640783          	lb	a5,-2042(s0)
20003abc:	fe07cee3          	bltz	a5,20003ab8 <FLASH_ROM_OUT>
20003ac0:	80a40223          	sb	a0,-2044(s0)
20003ac4:	8082                	ret

20003ac6 <FLASH_ROM_ADDR>:
FLASH_ROM_ADDR():
20003ac6:	1141                	addi	sp,sp,-16
20003ac8:	c426                	sw	s1,8(sp)
20003aca:	c24a                	sw	s2,4(sp)
20003acc:	c04e                	sw	s3,0(sp)
20003ace:	c606                	sw	ra,12(sp)
20003ad0:	0bf57713          	andi	a4,a0,191
20003ad4:	47ad                	li	a5,11
20003ad6:	89aa                	mv	s3,a0
20003ad8:	892e                	mv	s2,a1
20003ada:	4495                	li	s1,5
20003adc:	00f70663          	beq	a4,a5,20003ae8 <FLASH_ROM_ADDR+0x22>
20003ae0:	4519                	li	a0,6
20003ae2:	376d                	jal	20003a8c <FLASH_ROM_BEG>
20003ae4:	3f65                	jal	20003a9c <FLASH_ROM_END>
20003ae6:	448d                	li	s1,3
20003ae8:	854e                	mv	a0,s3
20003aea:	374d                	jal	20003a8c <FLASH_ROM_BEG>
20003aec:	59fd                	li	s3,-1
20003aee:	14fd                	addi	s1,s1,-1
20003af0:	01349863          	bne	s1,s3,20003b00 <FLASH_ROM_ADDR+0x3a>
20003af4:	40b2                	lw	ra,12(sp)
20003af6:	44a2                	lw	s1,8(sp)
20003af8:	4912                	lw	s2,4(sp)
20003afa:	4982                	lw	s3,0(sp)
20003afc:	0141                	addi	sp,sp,16
20003afe:	8082                	ret
20003b00:	01095513          	srli	a0,s2,0x10
20003b04:	0ff57513          	andi	a0,a0,255
20003b08:	3f45                	jal	20003ab8 <FLASH_ROM_OUT>
20003b0a:	0922                	slli	s2,s2,0x8
20003b0c:	b7cd                	j	20003aee <FLASH_ROM_ADDR+0x28>

20003b0e <FLASH_ROM_WAIT>:
FLASH_ROM_WAIT():
20003b0e:	1101                	addi	sp,sp,-32
20003b10:	cc26                	sw	s1,24(sp)
20003b12:	ce06                	sw	ra,28(sp)
20003b14:	000804b7          	lui	s1,0x80
20003b18:	3751                	jal	20003a9c <FLASH_ROM_END>
20003b1a:	4515                	li	a0,5
20003b1c:	3f85                	jal	20003a8c <FLASH_ROM_BEG>
20003b1e:	3771                	jal	20003aaa <FLASH_ROM_IN>
20003b20:	3769                	jal	20003aaa <FLASH_ROM_IN>
20003b22:	c62a                	sw	a0,12(sp)
20003b24:	3fa5                	jal	20003a9c <FLASH_ROM_END>
20003b26:	4532                	lw	a0,12(sp)
20003b28:	00157793          	andi	a5,a0,1
20003b2c:	eb89                	bnez	a5,20003b3e <FLASH_ROM_WAIT+0x30>
20003b2e:	00156513          	ori	a0,a0,1
20003b32:	0ff57513          	andi	a0,a0,255
20003b36:	40f2                	lw	ra,28(sp)
20003b38:	44e2                	lw	s1,24(sp)
20003b3a:	6105                	addi	sp,sp,32
20003b3c:	8082                	ret
20003b3e:	14fd                	addi	s1,s1,-1
20003b40:	fce9                	bnez	s1,20003b1a <FLASH_ROM_WAIT+0xc>
20003b42:	4501                	li	a0,0
20003b44:	bfcd                	j	20003b36 <FLASH_ROM_WAIT+0x28>

20003b46 <FLASH_EEPROM_CMD>:
FLASH_EEPROM_CMD():
20003b46:	7139                	addi	sp,sp,-64
20003b48:	dc26                	sw	s1,56(sp)
20003b4a:	da4a                	sw	s2,52(sp)
20003b4c:	d84e                	sw	s3,48(sp)
20003b4e:	d652                	sw	s4,44(sp)
20003b50:	d456                	sw	s5,40(sp)
20003b52:	d25a                	sw	s6,36(sp)
20003b54:	d05e                	sw	s7,32(sp)
20003b56:	ce62                	sw	s8,28(sp)
20003b58:	e000e7b7          	lui	a5,0xe000e
20003b5c:	de06                	sw	ra,60(sp)
20003b5e:	cc66                	sw	s9,24(sp)
20003b60:	ca6a                	sw	s10,20(sp)
20003b62:	4741                	li	a4,16
20003b64:	0407ab83          	lw	s7,64(a5) # e000e040 <_eusrstack+0xc0006040>
20003b68:	c622                	sw	s0,12(sp)
20003b6a:	c3b8                	sw	a4,64(a5)
20003b6c:	577d                	li	a4,-1
20003b6e:	0007ab03          	lw	s6,0(a5)
20003b72:	0047aa83          	lw	s5,4(a5)
20003b76:	18e7a023          	sw	a4,384(a5)
20003b7a:	18e7a223          	sw	a4,388(a5)
20003b7e:	400017b7          	lui	a5,0x40001
20003b82:	05700713          	li	a4,87
20003b86:	04e78023          	sb	a4,64(a5) # 40001040 <_eusrstack+0x1fff9040>
20003b8a:	fa800713          	li	a4,-88
20003b8e:	04e78023          	sb	a4,64(a5)
20003b92:	0447c783          	lbu	a5,68(a5)
20003b96:	ff750c13          	addi	s8,a0,-9
20003b9a:	84b6                	mv	s1,a3
20003b9c:	07e2                	slli	a5,a5,0x18
20003b9e:	0ffc7c13          	andi	s8,s8,255
20003ba2:	4685                	li	a3,1
20003ba4:	8a2a                	mv	s4,a0
20003ba6:	892e                	mv	s2,a1
20003ba8:	89b2                	mv	s3,a2
20003baa:	40002437          	lui	s0,0x40002
20003bae:	87e1                	srai	a5,a5,0x18
20003bb0:	5701                	li	a4,-32
20003bb2:	0186fa63          	bgeu	a3,s8,20003bc6 <FLASH_EEPROM_CMD+0x80>
20003bb6:	00d50863          	beq	a0,a3,20003bc6 <FLASH_EEPROM_CMD+0x80>
20003bba:	4689                	li	a3,2
20003bbc:	02000713          	li	a4,32
20003bc0:	00d51363          	bne	a0,a3,20003bc6 <FLASH_EEPROM_CMD+0x80>
20003bc4:	5701                	li	a4,-32
20003bc6:	8fd9                	or	a5,a5,a4
20003bc8:	0ff7f793          	andi	a5,a5,255
20003bcc:	40001d37          	lui	s10,0x40001
20003bd0:	04fd0223          	sb	a5,68(s10) # 40001044 <_eusrstack+0x1fff9044>
20003bd4:	4711                	li	a4,4
20003bd6:	80e40323          	sb	a4,-2042(s0) # 40001806 <_eusrstack+0x1fff9806>
20003bda:	0ff00513          	li	a0,255
20003bde:	357d                	jal	20003a8c <FLASH_ROM_BEG>
20003be0:	4c89                	li	s9,2
20003be2:	3d6d                	jal	20003a9c <FLASH_ROM_END>
20003be4:	118ceb63          	bltu	s9,s8,20003cfa <FLASH_EEPROM_CMD+0x1b4>
20003be8:	000707b7          	lui	a5,0x70
20003bec:	993e                	add	s2,s2,a5
20003bee:	00078737          	lui	a4,0x78
20003bf2:	5579                	li	a0,-2
20003bf4:	02e97e63          	bgeu	s2,a4,20003c30 <FLASH_EEPROM_CMD+0xea>
20003bf8:	009907b3          	add	a5,s2,s1
20003bfc:	02f76a63          	bltu	a4,a5,20003c30 <FLASH_EEPROM_CMD+0xea>
20003c00:	47a9                	li	a5,10
20003c02:	06fa1c63          	bne	s4,a5,20003c7a <FLASH_EEPROM_CMD+0x134>
20003c06:	e489                	bnez	s1,20003c10 <FLASH_EEPROM_CMD+0xca>
20003c08:	4481                	li	s1,0
20003c0a:	3d49                	jal	20003a9c <FLASH_ROM_END>
20003c0c:	8526                	mv	a0,s1
20003c0e:	a00d                	j	20003c30 <FLASH_EEPROM_CMD+0xea>
20003c10:	85ca                	mv	a1,s2
20003c12:	4509                	li	a0,2
20003c14:	3d4d                	jal	20003ac6 <FLASH_ROM_ADDR>
20003c16:	0985                	addi	s3,s3,1
20003c18:	fff9c503          	lbu	a0,-1(s3)
20003c1c:	14fd                	addi	s1,s1,-1
20003c1e:	0905                	addi	s2,s2,1
20003c20:	3d61                	jal	20003ab8 <FLASH_ROM_OUT>
20003c22:	c481                	beqz	s1,20003c2a <FLASH_EEPROM_CMD+0xe4>
20003c24:	0ff97793          	andi	a5,s2,255
20003c28:	f7fd                	bnez	a5,20003c16 <FLASH_EEPROM_CMD+0xd0>
20003c2a:	35d5                	jal	20003b0e <FLASH_ROM_WAIT>
20003c2c:	fd69                	bnez	a0,20003c06 <FLASH_EEPROM_CMD+0xc0>
20003c2e:	557d                	li	a0,-1
20003c30:	400017b7          	lui	a5,0x40001
20003c34:	05700713          	li	a4,87
20003c38:	04e78023          	sb	a4,64(a5) # 40001040 <_eusrstack+0x1fff9040>
20003c3c:	fa800713          	li	a4,-88
20003c40:	04e78023          	sb	a4,64(a5)
20003c44:	0447c703          	lbu	a4,68(a5)
20003c48:	8b41                	andi	a4,a4,16
20003c4a:	04e78223          	sb	a4,68(a5)
20003c4e:	e000e7b7          	lui	a5,0xe000e
20003c52:	0577a023          	sw	s7,64(a5) # e000e040 <_eusrstack+0xc0006040>
20003c56:	50f2                	lw	ra,60(sp)
20003c58:	1167a023          	sw	s6,256(a5)
20003c5c:	1157a223          	sw	s5,260(a5)
20003c60:	54e2                	lw	s1,56(sp)
20003c62:	4432                	lw	s0,12(sp)
20003c64:	5952                	lw	s2,52(sp)
20003c66:	59c2                	lw	s3,48(sp)
20003c68:	5a32                	lw	s4,44(sp)
20003c6a:	5aa2                	lw	s5,40(sp)
20003c6c:	5b12                	lw	s6,36(sp)
20003c6e:	5b82                	lw	s7,32(sp)
20003c70:	4c72                	lw	s8,28(sp)
20003c72:	4ce2                	lw	s9,24(sp)
20003c74:	4d52                	lw	s10,20(sp)
20003c76:	6121                	addi	sp,sp,64
20003c78:	8082                	ret
20003c7a:	47a5                	li	a5,9
20003c7c:	06fa1463          	bne	s4,a5,20003ce4 <FLASH_EEPROM_CMD+0x19e>
20003c80:	6985                	lui	s3,0x1
20003c82:	0ff00793          	li	a5,255
20003c86:	009786b3          	add	a3,a5,s1
20003c8a:	00f974b3          	and	s1,s2,a5
20003c8e:	94b6                	add	s1,s1,a3
20003c90:	fff7c793          	not	a5,a5
20003c94:	8cfd                	and	s1,s1,a5
20003c96:	0127f933          	and	s2,a5,s2
20003c9a:	6a41                	lui	s4,0x10
20003c9c:	6c05                	lui	s8,0x1
20003c9e:	fff98793          	addi	a5,s3,-1 # fff <TFT_Draw_Ellipse+0x145>
20003ca2:	0127f7b3          	and	a5,a5,s2
20003ca6:	e399                	bnez	a5,20003cac <FLASH_EEPROM_CMD+0x166>
20003ca8:	0134fc63          	bgeu	s1,s3,20003cc0 <FLASH_EEPROM_CMD+0x17a>
20003cac:	0049d993          	srli	s3,s3,0x4
20003cb0:	47c1                	li	a5,16
20003cb2:	ff37e6e3          	bltu	a5,s3,20003c9e <FLASH_EEPROM_CMD+0x158>
20003cb6:	bf89                	j	20003c08 <FLASH_EEPROM_CMD+0xc2>
20003cb8:	6785                	lui	a5,0x1
20003cba:	69c1                	lui	s3,0x10
20003cbc:	17fd                	addi	a5,a5,-1
20003cbe:	b7e1                	j	20003c86 <FLASH_EEPROM_CMD+0x140>
20003cc0:	0d800513          	li	a0,216
20003cc4:	01498863          	beq	s3,s4,20003cd4 <FLASH_EEPROM_CMD+0x18e>
20003cc8:	02000513          	li	a0,32
20003ccc:	01898463          	beq	s3,s8,20003cd4 <FLASH_EEPROM_CMD+0x18e>
20003cd0:	08100513          	li	a0,129
20003cd4:	85ca                	mv	a1,s2
20003cd6:	3bc5                	jal	20003ac6 <FLASH_ROM_ADDR>
20003cd8:	3d1d                	jal	20003b0e <FLASH_ROM_WAIT>
20003cda:	d931                	beqz	a0,20003c2e <FLASH_EEPROM_CMD+0xe8>
20003cdc:	994e                	add	s2,s2,s3
20003cde:	413484b3          	sub	s1,s1,s3
20003ce2:	b7d9                	j	20003ca8 <FLASH_EEPROM_CMD+0x162>
20003ce4:	85ca                	mv	a1,s2
20003ce6:	452d                	li	a0,11
20003ce8:	3bf9                	jal	20003ac6 <FLASH_ROM_ADDR>
20003cea:	94ce                	add	s1,s1,s3
20003cec:	f0998ee3          	beq	s3,s1,20003c08 <FLASH_EEPROM_CMD+0xc2>
20003cf0:	0985                	addi	s3,s3,1
20003cf2:	3b65                	jal	20003aaa <FLASH_ROM_IN>
20003cf4:	fea98fa3          	sb	a0,-1(s3) # ffff <_data_lma+0xbdb3>
20003cf8:	bfd5                	j	20003cec <FLASH_EEPROM_CMD+0x1a6>
20003cfa:	fffa0793          	addi	a5,s4,-1 # ffff <_data_lma+0xbdb3>
20003cfe:	0ff7f793          	andi	a5,a5,255
20003d02:	08fcec63          	bltu	s9,a5,20003d9a <.loop406+0x54>
20003d06:	045d4703          	lbu	a4,69(s10)
20003d0a:	000807b7          	lui	a5,0x80
20003d0e:	02077713          	andi	a4,a4,32
20003d12:	e319                	bnez	a4,20003d18 <FLASH_EEPROM_CMD+0x1d2>
20003d14:	000787b7          	lui	a5,0x78
20003d18:	5579                	li	a0,-2
20003d1a:	f0f97be3          	bgeu	s2,a5,20003c30 <FLASH_EEPROM_CMD+0xea>
20003d1e:	00990733          	add	a4,s2,s1
20003d22:	f0e7e7e3          	bltu	a5,a4,20003c30 <FLASH_EEPROM_CMD+0xea>
20003d26:	4789                	li	a5,2
20003d28:	04fa1063          	bne	s4,a5,20003d68 <.loop406+0x22>
20003d2c:	8089                	srli	s1,s1,0x2
20003d2e:	4a55                	li	s4,21
20003d30:	ec048ce3          	beqz	s1,20003c08 <FLASH_EEPROM_CMD+0xc2>
20003d34:	85ca                	mv	a1,s2
20003d36:	4509                	li	a0,2
20003d38:	3379                	jal	20003ac6 <FLASH_ROM_ADDR>
20003d3a:	0991                	addi	s3,s3,4
20003d3c:	ffc9a703          	lw	a4,-4(s3)
20003d40:	4791                	li	a5,4
20003d42:	80e42023          	sw	a4,-2048(s0)

20003d46 <.loop406>:
20003d46:	80640703          	lb	a4,-2042(s0)
20003d4a:	fe074ee3          	bltz	a4,20003d46 <.loop406>
20003d4e:	81440323          	sb	s4,-2042(s0)
20003d52:	17fd                	addi	a5,a5,-1
20003d54:	fbed                	bnez	a5,20003d46 <.loop406>
20003d56:	14fd                	addi	s1,s1,-1
20003d58:	0911                	addi	s2,s2,4
20003d5a:	c481                	beqz	s1,20003d62 <.loop406+0x1c>
20003d5c:	0ff97793          	andi	a5,s2,255
20003d60:	ffe9                	bnez	a5,20003d3a <FLASH_EEPROM_CMD+0x1f4>
20003d62:	3375                	jal	20003b0e <FLASH_ROM_WAIT>
20003d64:	f571                	bnez	a0,20003d30 <FLASH_EEPROM_CMD+0x1ea>
20003d66:	b5e1                	j	20003c2e <FLASH_EEPROM_CMD+0xe8>
20003d68:	4785                	li	a5,1
20003d6a:	f4fa07e3          	beq	s4,a5,20003cb8 <FLASH_EEPROM_CMD+0x172>
20003d6e:	85ca                	mv	a1,s2
20003d70:	452d                	li	a0,11
20003d72:	3b91                	jal	20003ac6 <FLASH_ROM_ADDR>
20003d74:	fff48913          	addi	s2,s1,-1 # 7ffff <_data_lma+0x7bdb3>
20003d78:	e80488e3          	beqz	s1,20003c08 <FLASH_EEPROM_CMD+0xc2>
20003d7c:	333d                	jal	20003aaa <FLASH_ROM_IN>
20003d7e:	00397793          	andi	a5,s2,3
20003d82:	eb91                	bnez	a5,20003d96 <.loop406+0x50>
20003d84:	80042683          	lw	a3,-2048(s0)
20003d88:	0009a703          	lw	a4,0(s3)
20003d8c:	00498793          	addi	a5,s3,4
20003d90:	e6e69de3          	bne	a3,a4,20003c0a <FLASH_EEPROM_CMD+0xc4>
20003d94:	89be                	mv	s3,a5
20003d96:	84ca                	mv	s1,s2
20003d98:	bff1                	j	20003d74 <.loop406+0x2e>
20003d9a:	47b5                	li	a5,13
20003d9c:	00fa1663          	bne	s4,a5,20003da8 <.loop406+0x62>
20003da0:	0b900513          	li	a0,185
20003da4:	31e5                	jal	20003a8c <FLASH_ROM_BEG>
20003da6:	b58d                	j	20003c08 <FLASH_EEPROM_CMD+0xc2>
20003da8:	47b1                	li	a5,12
20003daa:	0ab00513          	li	a0,171
20003dae:	fefa0be3          	beq	s4,a5,20003da4 <.loop406+0x5e>
20003db2:	4799                	li	a5,6
20003db4:	02fa1e63          	bne	s4,a5,20003df0 <.loop406+0xaa>
20003db8:	85ca                	mv	a1,s2
20003dba:	452d                	li	a0,11
20003dbc:	3329                	jal	20003ac6 <FLASH_ROM_ADDR>
20003dbe:	4481                	li	s1,0
20003dc0:	4c0d                	li	s8,3
20003dc2:	4a21                	li	s4,8
20003dc4:	31dd                	jal	20003aaa <FLASH_ROM_IN>
20003dc6:	01849663          	bne	s1,s8,20003dd2 <.loop406+0x8c>
20003dca:	80042783          	lw	a5,-2048(s0)
20003dce:	00f9a023          	sw	a5,0(s3)
20003dd2:	0485                	addi	s1,s1,1
20003dd4:	ff4498e3          	bne	s1,s4,20003dc4 <.loop406+0x7e>
20003dd8:	80042783          	lw	a5,-2048(s0)
20003ddc:	01291713          	slli	a4,s2,0x12
20003de0:	00075563          	bgez	a4,20003dea <.loop406+0xa4>
20003de4:	00f99223          	sh	a5,4(s3)
20003de8:	b505                	j	20003c08 <FLASH_EEPROM_CMD+0xc2>
20003dea:	00f9a223          	sw	a5,4(s3)
20003dee:	bd29                	j	20003c08 <FLASH_EEPROM_CMD+0xc2>
20003df0:	479d                	li	a5,7
20003df2:	02fa1963          	bne	s4,a5,20003e24 <.loop406+0xde>
20003df6:	4581                	li	a1,0
20003df8:	04b00513          	li	a0,75
20003dfc:	31e9                	jal	20003ac6 <FLASH_ROM_ADDR>
20003dfe:	44bd                	li	s1,15
20003e00:	0009a023          	sw	zero,0(s3)
20003e04:	0009a223          	sw	zero,4(s3)
20003e08:	597d                	li	s2,-1
20003e0a:	3145                	jal	20003aaa <FLASH_ROM_IN>
20003e0c:	0074f793          	andi	a5,s1,7
20003e10:	97ce                	add	a5,a5,s3
20003e12:	0007c703          	lbu	a4,0(a5) # 78000 <_data_lma+0x73db4>
20003e16:	14fd                	addi	s1,s1,-1
20003e18:	8d39                	xor	a0,a0,a4
20003e1a:	00a78023          	sb	a0,0(a5)
20003e1e:	ff2496e3          	bne	s1,s2,20003e0a <.loop406+0xc4>
20003e22:	b3dd                	j	20003c08 <FLASH_EEPROM_CMD+0xc2>
20003e24:	47a1                	li	a5,8
20003e26:	04fa1263          	bne	s4,a5,20003e6a <.loop406+0x124>
20003e2a:	31d5                	jal	20003b0e <FLASH_ROM_WAIT>
20003e2c:	4481                	li	s1,0
20003e2e:	00090d63          	beqz	s2,20003e48 <.loop406+0x102>
20003e32:	478d                	li	a5,3
20003e34:	03c00493          	li	s1,60
20003e38:	00f90863          	beq	s2,a5,20003e48 <.loop406+0x102>
20003e3c:	05000493          	li	s1,80
20003e40:	01990463          	beq	s2,s9,20003e48 <.loop406+0x102>
20003e44:	04400493          	li	s1,68
20003e48:	07c57513          	andi	a0,a0,124
20003e4c:	da950ee3          	beq	a0,s1,20003c08 <FLASH_EEPROM_CMD+0xc2>
20003e50:	4519                	li	a0,6
20003e52:	392d                	jal	20003a8c <FLASH_ROM_BEG>
20003e54:	31a1                	jal	20003a9c <FLASH_ROM_END>
20003e56:	4505                	li	a0,1
20003e58:	3915                	jal	20003a8c <FLASH_ROM_BEG>
20003e5a:	8526                	mv	a0,s1
20003e5c:	39b1                	jal	20003ab8 <FLASH_ROM_OUT>
20003e5e:	4509                	li	a0,2
20003e60:	39a1                	jal	20003ab8 <FLASH_ROM_OUT>
20003e62:	3175                	jal	20003b0e <FLASH_ROM_WAIT>
20003e64:	da0512e3          	bnez	a0,20003c08 <FLASH_EEPROM_CMD+0xc2>
20003e68:	b3d9                	j	20003c2e <FLASH_EEPROM_CMD+0xe8>
20003e6a:	4791                	li	a5,4
20003e6c:	00fa1963          	bne	s4,a5,20003e7e <.loop406+0x138>
20003e70:	06600513          	li	a0,102
20003e74:	3921                	jal	20003a8c <FLASH_ROM_BEG>
20003e76:	311d                	jal	20003a9c <FLASH_ROM_END>
20003e78:	09900513          	li	a0,153
20003e7c:	b725                	j	20003da4 <.loop406+0x5e>
20003e7e:	d80a05e3          	beqz	s4,20003c08 <FLASH_EEPROM_CMD+0xc2>
20003e82:	54f1                	li	s1,-4
20003e84:	b359                	j	20003c0a <FLASH_EEPROM_CMD+0xc4>
	...

Disassembly of section .text:

0000068c <handle_reset>:
handle_reset():
d:\CH573FEVT\CH573F_TFT\obj/../Startup/startup_CH573.S:116
	.weak	handle_reset
	.align	1
handle_reset:
.option push 
.option	norelax 
	la gp, __global_pointer$
     68c:	20004197          	auipc	gp,0x20004
     690:	1d418193          	addi	gp,gp,468 # 20004860 <__global_pointer$>
d:\CH573FEVT\CH573F_TFT\obj/../Startup/startup_CH573.S:119
.option	pop 
1:
	la sp, _eusrstack 
     694:	20008117          	auipc	sp,0x20008
     698:	96c10113          	addi	sp,sp,-1684 # 20008000 <_eusrstack>
d:\CH573FEVT\CH573F_TFT\obj/../Startup/startup_CH573.S:123

/* Load highcode code  section from flash to RAM */
2:
    la a0, _highcode_lma
     69c:	00400513          	li	a0,4
d:\CH573FEVT\CH573F_TFT\obj/../Startup/startup_CH573.S:124
    la a1, _highcode_vma_start
     6a0:	20003597          	auipc	a1,0x20003
     6a4:	16058593          	addi	a1,a1,352 # 20003800 <_highcode_vma_start>
d:\CH573FEVT\CH573F_TFT\obj/../Startup/startup_CH573.S:125
    la a2, _highcode_vma_end
     6a8:	20003617          	auipc	a2,0x20003
     6ac:	7e060613          	addi	a2,a2,2016 # 20003e88 <_highcode_vma_end>
d:\CH573FEVT\CH573F_TFT\obj/../Startup/startup_CH573.S:126
    bgeu a1, a2, 2f
     6b0:	00c5fa63          	bgeu	a1,a2,6c4 <handle_reset+0x38>
d:\CH573FEVT\CH573F_TFT\obj/../Startup/startup_CH573.S:128
1:
    lw t0, (a0)
     6b4:	00052283          	lw	t0,0(a0)
d:\CH573FEVT\CH573F_TFT\obj/../Startup/startup_CH573.S:129
    sw t0, (a1)
     6b8:	0055a023          	sw	t0,0(a1)
d:\CH573FEVT\CH573F_TFT\obj/../Startup/startup_CH573.S:130
    addi a0, a0, 4
     6bc:	0511                	addi	a0,a0,4
d:\CH573FEVT\CH573F_TFT\obj/../Startup/startup_CH573.S:131
    addi a1, a1, 4
     6be:	0591                	addi	a1,a1,4
d:\CH573FEVT\CH573F_TFT\obj/../Startup/startup_CH573.S:132
    bltu a1, a2, 1b
     6c0:	fec5eae3          	bltu	a1,a2,6b4 <handle_reset+0x28>
d:\CH573FEVT\CH573F_TFT\obj/../Startup/startup_CH573.S:136

/* Load data section from flash to RAM */
2:
	la a0, _data_lma
     6c4:	00004517          	auipc	a0,0x4
     6c8:	b8850513          	addi	a0,a0,-1144 # 424c <_data_lma>
d:\CH573FEVT\CH573F_TFT\obj/../Startup/startup_CH573.S:137
	la a1, _data_vma
     6cc:	20004597          	auipc	a1,0x20004
     6d0:	93458593          	addi	a1,a1,-1740 # 20004000 <_data_vma>
d:\CH573FEVT\CH573F_TFT\obj/../Startup/startup_CH573.S:138
	la a2, _edata
     6d4:	81018613          	addi	a2,gp,-2032 # 20004070 <_edata>
d:\CH573FEVT\CH573F_TFT\obj/../Startup/startup_CH573.S:139
	bgeu a1, a2, 2f
     6d8:	00c5fa63          	bgeu	a1,a2,6ec <handle_reset+0x60>
d:\CH573FEVT\CH573F_TFT\obj/../Startup/startup_CH573.S:141
1:
	lw t0, (a0)
     6dc:	00052283          	lw	t0,0(a0)
d:\CH573FEVT\CH573F_TFT\obj/../Startup/startup_CH573.S:142
	sw t0, (a1)
     6e0:	0055a023          	sw	t0,0(a1)
d:\CH573FEVT\CH573F_TFT\obj/../Startup/startup_CH573.S:143
	addi a0, a0, 4
     6e4:	0511                	addi	a0,a0,4
d:\CH573FEVT\CH573F_TFT\obj/../Startup/startup_CH573.S:144
	addi a1, a1, 4
     6e6:	0591                	addi	a1,a1,4
d:\CH573FEVT\CH573F_TFT\obj/../Startup/startup_CH573.S:145
	bltu a1, a2, 1b
     6e8:	fec5eae3          	bltu	a1,a2,6dc <handle_reset+0x50>
d:\CH573FEVT\CH573F_TFT\obj/../Startup/startup_CH573.S:148
2:
	/* clear bss section */
	la a0, _sbss
     6ec:	81018513          	addi	a0,gp,-2032 # 20004070 <_edata>
d:\CH573FEVT\CH573F_TFT\obj/../Startup/startup_CH573.S:149
	la a1, _ebss
     6f0:	85818593          	addi	a1,gp,-1960 # 200040b8 <_ebss>
d:\CH573FEVT\CH573F_TFT\obj/../Startup/startup_CH573.S:150
	bgeu a0, a1, 2f
     6f4:	00b57763          	bgeu	a0,a1,702 <handle_reset+0x76>
d:\CH573FEVT\CH573F_TFT\obj/../Startup/startup_CH573.S:152
1:
	sw zero, (a0)
     6f8:	00052023          	sw	zero,0(a0)
d:\CH573FEVT\CH573F_TFT\obj/../Startup/startup_CH573.S:153
	addi a0, a0, 4
     6fc:	0511                	addi	a0,a0,4
d:\CH573FEVT\CH573F_TFT\obj/../Startup/startup_CH573.S:154
	bltu a0, a1, 1b
     6fe:	feb56de3          	bltu	a0,a1,6f8 <handle_reset+0x6c>
d:\CH573FEVT\CH573F_TFT\obj/../Startup/startup_CH573.S:156
2:
    li t0, 0x88
     702:	08800293          	li	t0,136
d:\CH573FEVT\CH573F_TFT\obj/../Startup/startup_CH573.S:157
    csrs mstatus, t0
     706:	3002a073          	csrs	mstatus,t0
d:\CH573FEVT\CH573F_TFT\obj/../Startup/startup_CH573.S:158
	la t0, _vector_base
     70a:	20003297          	auipc	t0,0x20003
     70e:	0f628293          	addi	t0,t0,246 # 20003800 <_highcode_vma_start>
d:\CH573FEVT\CH573F_TFT\obj/../Startup/startup_CH573.S:159
    ori t0, t0, 1
     712:	0012e293          	ori	t0,t0,1
d:\CH573FEVT\CH573F_TFT\obj/../Startup/startup_CH573.S:160
	csrw mtvec, t0
     716:	30529073          	csrw	mtvec,t0
d:\CH573FEVT\CH573F_TFT\obj/../Startup/startup_CH573.S:162

    lui a4,0x40001
     71a:	40001737          	lui	a4,0x40001
d:\CH573FEVT\CH573F_TFT\obj/../Startup/startup_CH573.S:163
    li  a5,87
     71e:	05700793          	li	a5,87
d:\CH573FEVT\CH573F_TFT\obj/../Startup/startup_CH573.S:164
    sb  a5,64(a4)
     722:	04f70023          	sb	a5,64(a4) # 40001040 <_eusrstack+0x1fff9040>
d:\CH573FEVT\CH573F_TFT\obj/../Startup/startup_CH573.S:165
    li  a5,-88
     726:	fa800793          	li	a5,-88
d:\CH573FEVT\CH573F_TFT\obj/../Startup/startup_CH573.S:166
    sb  a5,64(a4)
     72a:	04f70023          	sb	a5,64(a4)
d:\CH573FEVT\CH573F_TFT\obj/../Startup/startup_CH573.S:167
    fence.i
     72e:	0000100f          	fence.i
d:\CH573FEVT\CH573F_TFT\obj/../Startup/startup_CH573.S:168
    lw  a5,72(a4)
     732:	473c                	lw	a5,72(a4)
d:\CH573FEVT\CH573F_TFT\obj/../Startup/startup_CH573.S:169
    lui a3,0xfa000
     734:	fa0006b7          	lui	a3,0xfa000
d:\CH573FEVT\CH573F_TFT\obj/../Startup/startup_CH573.S:170
    addi  a3,a3,-8
     738:	16e1                	addi	a3,a3,-8
d:\CH573FEVT\CH573F_TFT\obj/../Startup/startup_CH573.S:171
    and a5,a5,a3
     73a:	8ff5                	and	a5,a5,a3
d:\CH573FEVT\CH573F_TFT\obj/../Startup/startup_CH573.S:172
    lui a3,0x6000
     73c:	060006b7          	lui	a3,0x6000
d:\CH573FEVT\CH573F_TFT\obj/../Startup/startup_CH573.S:173
    addi a3,a3,5
     740:	0695                	addi	a3,a3,5
d:\CH573FEVT\CH573F_TFT\obj/../Startup/startup_CH573.S:174
    or  a5,a5,a3
     742:	8fd5                	or	a5,a5,a3
d:\CH573FEVT\CH573F_TFT\obj/../Startup/startup_CH573.S:175
    sw  a5,72(a4)
     744:	c73c                	sw	a5,72(a4)
d:\CH573FEVT\CH573F_TFT\obj/../Startup/startup_CH573.S:177

	la t0, main
     746:	00001297          	auipc	t0,0x1
     74a:	63a28293          	addi	t0,t0,1594 # 1d80 <main>
d:\CH573FEVT\CH573F_TFT\obj/../Startup/startup_CH573.S:178
	csrw mepc, t0
     74e:	34129073          	csrw	mepc,t0
d:\CH573FEVT\CH573F_TFT\obj/../Startup/startup_CH573.S:185
	/* enable vector relocation
	li t0, 0xE000ED14
	li t1, 1
	sw t1, 0(t0)*/
	
	mret
     752:	30200073          	mret

00000756 <memset>:
memset():
     756:	433d                	li	t1,15
     758:	872a                	mv	a4,a0
     75a:	02c37363          	bgeu	t1,a2,780 <memset+0x2a>
     75e:	00f77793          	andi	a5,a4,15
     762:	efbd                	bnez	a5,7e0 <memset+0x8a>
     764:	e5ad                	bnez	a1,7ce <memset+0x78>
     766:	ff067693          	andi	a3,a2,-16
     76a:	8a3d                	andi	a2,a2,15
     76c:	96ba                	add	a3,a3,a4
     76e:	c30c                	sw	a1,0(a4)
     770:	c34c                	sw	a1,4(a4)
     772:	c70c                	sw	a1,8(a4)
     774:	c74c                	sw	a1,12(a4)
     776:	0741                	addi	a4,a4,16
     778:	fed76be3          	bltu	a4,a3,76e <memset+0x18>
     77c:	e211                	bnez	a2,780 <memset+0x2a>
     77e:	8082                	ret
     780:	40c306b3          	sub	a3,t1,a2
     784:	068a                	slli	a3,a3,0x2
     786:	00000297          	auipc	t0,0x0
     78a:	9696                	add	a3,a3,t0
     78c:	00a68067          	jr	10(a3) # 600000a <_data_lma+0x5ffbdbe>
     790:	00b70723          	sb	a1,14(a4)
     794:	00b706a3          	sb	a1,13(a4)
     798:	00b70623          	sb	a1,12(a4)
     79c:	00b705a3          	sb	a1,11(a4)
     7a0:	00b70523          	sb	a1,10(a4)
     7a4:	00b704a3          	sb	a1,9(a4)
     7a8:	00b70423          	sb	a1,8(a4)
     7ac:	00b703a3          	sb	a1,7(a4)
     7b0:	00b70323          	sb	a1,6(a4)
     7b4:	00b702a3          	sb	a1,5(a4)
     7b8:	00b70223          	sb	a1,4(a4)
     7bc:	00b701a3          	sb	a1,3(a4)
     7c0:	00b70123          	sb	a1,2(a4)
     7c4:	00b700a3          	sb	a1,1(a4)
     7c8:	00b70023          	sb	a1,0(a4)
     7cc:	8082                	ret
     7ce:	0ff5f593          	andi	a1,a1,255
     7d2:	00859693          	slli	a3,a1,0x8
     7d6:	8dd5                	or	a1,a1,a3
     7d8:	01059693          	slli	a3,a1,0x10
     7dc:	8dd5                	or	a1,a1,a3
     7de:	b761                	j	766 <memset+0x10>
     7e0:	00279693          	slli	a3,a5,0x2
     7e4:	00000297          	auipc	t0,0x0
     7e8:	9696                	add	a3,a3,t0
     7ea:	8286                	mv	t0,ra
     7ec:	fa8680e7          	jalr	-88(a3)
     7f0:	8096                	mv	ra,t0
     7f2:	17c1                	addi	a5,a5,-16
     7f4:	8f1d                	sub	a4,a4,a5
     7f6:	963e                	add	a2,a2,a5
     7f8:	f8c374e3          	bgeu	t1,a2,780 <memset+0x2a>
     7fc:	b7a5                	j	764 <memset+0xe>

000007fe <TFT_Draw_MultiPoint.part.0>:
TFT_Draw_MultiPoint():
d:\CH573FEVT\CH573F_TFT\obj/../src/TFTc/TFT_CAD.c:42
 * @param  points  瑰扮
 * @param  count   圭伴
 * @param  color   圭棰 (RGB565煎)
 * @retval 
 */
void TFT_Draw_MultiPoint(TFT_HandleTypeDef *htft, const TFT_Point points[], uint16_t count, uint16_t color)
     7fe:	1101                	addi	sp,sp,-32
     800:	cc22                	sw	s0,24(sp)
     802:	ca26                	sw	s1,20(sp)
     804:	c84a                	sw	s2,16(sp)
     806:	c64e                	sw	s3,12(sp)
     808:	c452                	sw	s4,8(sp)
     80a:	ce06                	sw	ra,28(sp)
     80c:	892a                	mv	s2,a0
     80e:	842e                	mv	s0,a1
     810:	89b2                	mv	s3,a2
     812:	8a36                	mv	s4,a3
d:\CH573FEVT\CH573F_TFT\obj/../src/TFTc/TFT_CAD.c:52
	}

	// 缃缂插虹‘淇浠绌虹缂插哄濮
	TFT_Reset_Buffer(htft);

	for (uint16_t i = 0; i < count; i++)
     814:	4481                	li	s1,0
d:\CH573FEVT\CH573F_TFT\obj/../src/TFTc/TFT_CAD.c:50
	TFT_Reset_Buffer(htft);
     816:	1b6010ef          	jal	ra,19cc <TFT_Reset_Buffer>
d:\CH573FEVT\CH573F_TFT\obj/../src/TFTc/TFT_CAD.c:52
	for (uint16_t i = 0; i < count; i++)
     81a:	01349d63          	bne	s1,s3,834 <TFT_Draw_MultiPoint.part.0+0x36>
d:\CH573FEVT\CH573F_TFT\obj/../src/TFTc/TFT_CAD.c:60
		TFT_Buffer_Write16(htft, color);										   // 灏棰插ョ插
	}

	// 纭淇缂茬归借
	TFT_Flush_Buffer(htft, 1);
}
     81e:	4462                	lw	s0,24(sp)
     820:	40f2                	lw	ra,28(sp)
     822:	44d2                	lw	s1,20(sp)
     824:	49b2                	lw	s3,12(sp)
     826:	4a22                	lw	s4,8(sp)
d:\CH573FEVT\CH573F_TFT\obj/../src/TFTc/TFT_CAD.c:59
	TFT_Flush_Buffer(htft, 1);
     828:	854a                	mv	a0,s2
d:\CH573FEVT\CH573F_TFT\obj/../src/TFTc/TFT_CAD.c:60
}
     82a:	4942                	lw	s2,16(sp)
d:\CH573FEVT\CH573F_TFT\obj/../src/TFTc/TFT_CAD.c:59
	TFT_Flush_Buffer(htft, 1);
     82c:	4585                	li	a1,1
d:\CH573FEVT\CH573F_TFT\obj/../src/TFTc/TFT_CAD.c:60
}
     82e:	6105                	addi	sp,sp,32
d:\CH573FEVT\CH573F_TFT\obj/../src/TFTc/TFT_CAD.c:59
	TFT_Flush_Buffer(htft, 1);
     830:	11a0106f          	j	194a <TFT_Flush_Buffer>
d:\CH573FEVT\CH573F_TFT\obj/../src/TFTc/TFT_CAD.c:54
		TFT_Set_Address(htft, points[i].x, points[i].y, points[i].x, points[i].y); // 璁剧疆涓瑰板
     834:	00045683          	lhu	a3,0(s0)
     838:	00245703          	lhu	a4,2(s0)
     83c:	854a                	mv	a0,s2
     83e:	85b6                	mv	a1,a3
     840:	863a                	mv	a2,a4
     842:	29c010ef          	jal	ra,1ade <TFT_Set_Address>
d:\CH573FEVT\CH573F_TFT\obj/../src/TFTc/TFT_CAD.c:52
	for (uint16_t i = 0; i < count; i++)
     846:	0485                	addi	s1,s1,1
d:\CH573FEVT\CH573F_TFT\obj/../src/TFTc/TFT_CAD.c:55
		TFT_Buffer_Write16(htft, color);										   // 灏棰插ョ插
     848:	85d2                	mv	a1,s4
     84a:	854a                	mv	a0,s2
d:\CH573FEVT\CH573F_TFT\obj/../src/TFTc/TFT_CAD.c:52
	for (uint16_t i = 0; i < count; i++)
     84c:	04c2                	slli	s1,s1,0x10
d:\CH573FEVT\CH573F_TFT\obj/../src/TFTc/TFT_CAD.c:55
		TFT_Buffer_Write16(htft, color);										   // 灏棰插ョ插
     84e:	122010ef          	jal	ra,1970 <TFT_Buffer_Write16>
d:\CH573FEVT\CH573F_TFT\obj/../src/TFTc/TFT_CAD.c:52
	for (uint16_t i = 0; i < count; i++)
     852:	80c1                	srli	s1,s1,0x10
     854:	0411                	addi	s0,s0,4
     856:	b7d1                	j	81a <TFT_Draw_MultiPoint.part.0+0x1c>

00000858 <TFT_Draw_Point>:
TFT_Draw_Point():
d:\CH573FEVT\CH573F_TFT\obj/../src/TFTc/TFT_CAD.c:29
{
     858:	1141                	addi	sp,sp,-16
     85a:	c226                	sw	s1,4(sp)
d:\CH573FEVT\CH573F_TFT\obj/../src/TFTc/TFT_CAD.c:30
	TFT_Set_Address(htft, x, y, x, y); // 璁剧疆浣缃板涓
     85c:	8732                	mv	a4,a2
d:\CH573FEVT\CH573F_TFT\obj/../src/TFTc/TFT_CAD.c:29
{
     85e:	84b6                	mv	s1,a3
d:\CH573FEVT\CH573F_TFT\obj/../src/TFTc/TFT_CAD.c:30
	TFT_Set_Address(htft, x, y, x, y); // 璁剧疆浣缃板涓
     860:	86ae                	mv	a3,a1
d:\CH573FEVT\CH573F_TFT\obj/../src/TFTc/TFT_CAD.c:29
{
     862:	c422                	sw	s0,8(sp)
     864:	c606                	sw	ra,12(sp)
     866:	842a                	mv	s0,a0
d:\CH573FEVT\CH573F_TFT\obj/../src/TFTc/TFT_CAD.c:30
	TFT_Set_Address(htft, x, y, x, y); // 璁剧疆浣缃板涓
     868:	276010ef          	jal	ra,1ade <TFT_Set_Address>
d:\CH573FEVT\CH573F_TFT\obj/../src/TFTc/TFT_CAD.c:31
	TFT_Write_Data16(htft, color);	   // 瀵逛癸存ュュ冲 (诲)
     86c:	8522                	mv	a0,s0
d:\CH573FEVT\CH573F_TFT\obj/../src/TFTc/TFT_CAD.c:32
}
     86e:	4422                	lw	s0,8(sp)
     870:	40b2                	lw	ra,12(sp)
d:\CH573FEVT\CH573F_TFT\obj/../src/TFTc/TFT_CAD.c:31
	TFT_Write_Data16(htft, color);	   // 瀵逛癸存ュュ冲 (诲)
     872:	85a6                	mv	a1,s1
d:\CH573FEVT\CH573F_TFT\obj/../src/TFTc/TFT_CAD.c:32
}
     874:	4492                	lw	s1,4(sp)
     876:	0141                	addi	sp,sp,16
d:\CH573FEVT\CH573F_TFT\obj/../src/TFTc/TFT_CAD.c:31
	TFT_Write_Data16(htft, color);	   // 瀵逛癸存ュュ冲 (诲)
     878:	1ec0106f          	j	1a64 <TFT_Write_Data16>

0000087c <TFT_Fill_Area>:
TFT_Fill_Area():
d:\CH573FEVT\CH573F_TFT\obj/../src/TFTc/TFT_CAD.c:75
 * @retval 
 */
void TFT_Fill_Area(TFT_HandleTypeDef *htft, uint16_t x_start, uint16_t y_start, uint16_t x_end, uint16_t y_end, uint16_t color)
{
	// 妫ュэ叉 x_end <= x_start  y_end <= y_start
	if (x_end <= x_start || y_end <= y_start)
     87c:	06d5f763          	bgeu	a1,a3,8ea <TFT_Fill_Area+0x6e>
d:\CH573FEVT\CH573F_TFT\obj/../src/TFTc/TFT_CAD.c:75 (discriminator 1)
     880:	06e67563          	bgeu	a2,a4,8ea <TFT_Fill_Area+0x6e>
d:\CH573FEVT\CH573F_TFT\obj/../src/TFTc/TFT_CAD.c:73
{
     884:	1101                	addi	sp,sp,-32
     886:	cc22                	sw	s0,24(sp)
d:\CH573FEVT\CH573F_TFT\obj/../src/TFTc/TFT_CAD.c:78
		return;

	uint32_t total_pixels = (uint32_t)(x_end - x_start) * (y_end - y_start);
     888:	40c70833          	sub	a6,a4,a2
     88c:	40b68433          	sub	s0,a3,a1
     890:	03040433          	mul	s0,s0,a6
d:\CH573FEVT\CH573F_TFT\obj/../src/TFTc/TFT_CAD.c:73
{
     894:	ce06                	sw	ra,28(sp)
     896:	ca26                	sw	s1,20(sp)
     898:	c84a                	sw	s2,16(sp)
     89a:	c64e                	sw	s3,12(sp)
d:\CH573FEVT\CH573F_TFT\obj/../src/TFTc/TFT_CAD.c:79
	if (total_pixels == 0)
     89c:	c021                	beqz	s0,8dc <TFT_Fill_Area+0x60>
d:\CH573FEVT\CH573F_TFT\obj/../src/TFTc/TFT_CAD.c:82
		return;

	TFT_Set_Address(htft, x_start, y_start, x_end - 1, y_end - 1); // 璁剧疆剧ず (Set_Address 浣跨ㄥ)
     89e:	177d                	addi	a4,a4,-1
     8a0:	16fd                	addi	a3,a3,-1
     8a2:	0742                	slli	a4,a4,0x10
     8a4:	06c2                	slli	a3,a3,0x10
     8a6:	8341                	srli	a4,a4,0x10
     8a8:	82c1                	srli	a3,a3,0x10
     8aa:	84aa                	mv	s1,a0
     8ac:	89be                	mv	s3,a5
     8ae:	230010ef          	jal	ra,1ade <TFT_Set_Address>
d:\CH573FEVT\CH573F_TFT\obj/../src/TFTc/TFT_CAD.c:85

	// 缃缂插轰互纭淇浠涓涓骞插缂插哄濮
	TFT_Reset_Buffer(htft);
     8b2:	8526                	mv	a0,s1
     8b4:	118010ef          	jal	ra,19cc <TFT_Reset_Buffer>
d:\CH573FEVT\CH573F_TFT\obj/../src/TFTc/TFT_CAD.c:88

	// 归濉绱锛╃ㄧ插烘楂ц
	for (uint32_t i = 0; i < total_pixels; i++)
     8b8:	4901                	li	s2,0
d:\CH573FEVT\CH573F_TFT\obj/../src/TFTc/TFT_CAD.c:90
	{
		TFT_Buffer_Write16(htft, color); // ラ叉版扮插猴缂插烘弧朵ㄥ
     8ba:	85ce                	mv	a1,s3
     8bc:	8526                	mv	a0,s1
d:\CH573FEVT\CH573F_TFT\obj/../src/TFTc/TFT_CAD.c:88
	for (uint32_t i = 0; i < total_pixels; i++)
     8be:	0905                	addi	s2,s2,1
d:\CH573FEVT\CH573F_TFT\obj/../src/TFTc/TFT_CAD.c:90
		TFT_Buffer_Write16(htft, color); // ラ叉版扮插猴缂插烘弧朵ㄥ
     8c0:	0b0010ef          	jal	ra,1970 <TFT_Buffer_Write16>
d:\CH573FEVT\CH573F_TFT\obj/../src/TFTc/TFT_CAD.c:88
	for (uint32_t i = 0; i < total_pixels; i++)
     8c4:	ff241be3          	bne	s0,s2,8ba <TFT_Fill_Area+0x3e>
d:\CH573FEVT\CH573F_TFT\obj/../src/TFTc/TFT_CAD.c:95
	}

	// 纭淇╀版借
	TFT_Flush_Buffer(htft, 1);
}
     8c8:	4462                	lw	s0,24(sp)
     8ca:	40f2                	lw	ra,28(sp)
     8cc:	4942                	lw	s2,16(sp)
     8ce:	49b2                	lw	s3,12(sp)
d:\CH573FEVT\CH573F_TFT\obj/../src/TFTc/TFT_CAD.c:94
	TFT_Flush_Buffer(htft, 1);
     8d0:	8526                	mv	a0,s1
d:\CH573FEVT\CH573F_TFT\obj/../src/TFTc/TFT_CAD.c:95
}
     8d2:	44d2                	lw	s1,20(sp)
d:\CH573FEVT\CH573F_TFT\obj/../src/TFTc/TFT_CAD.c:94
	TFT_Flush_Buffer(htft, 1);
     8d4:	4585                	li	a1,1
d:\CH573FEVT\CH573F_TFT\obj/../src/TFTc/TFT_CAD.c:95
}
     8d6:	6105                	addi	sp,sp,32
d:\CH573FEVT\CH573F_TFT\obj/../src/TFTc/TFT_CAD.c:94
	TFT_Flush_Buffer(htft, 1);
     8d8:	0720106f          	j	194a <TFT_Flush_Buffer>
d:\CH573FEVT\CH573F_TFT\obj/../src/TFTc/TFT_CAD.c:95
}
     8dc:	40f2                	lw	ra,28(sp)
     8de:	4462                	lw	s0,24(sp)
     8e0:	44d2                	lw	s1,20(sp)
     8e2:	4942                	lw	s2,16(sp)
     8e4:	49b2                	lw	s3,12(sp)
     8e6:	6105                	addi	sp,sp,32
     8e8:	8082                	ret
     8ea:	8082                	ret

000008ec <TFT_Draw_Fast_HLine>:
TFT_Draw_Fast_HLine():
d:\CH573FEVT\CH573F_TFT\obj/../src/TFTc/TFT_CAD.c:108
 * @param  color   绾跨棰 (RGB565煎)
 * @retval 
 */
void TFT_Draw_Fast_HLine(TFT_HandleTypeDef *htft, uint16_t x, uint16_t y, uint16_t width, uint16_t color)
{
	if (width == 0)
     8ec:	cab1                	beqz	a3,940 <TFT_Draw_Fast_HLine+0x54>
d:\CH573FEVT\CH573F_TFT\obj/../src/TFTc/TFT_CAD.c:111
		return;

	TFT_Set_Address(htft, x, y, x + width - 1, y); // 璁剧疆板绐
     8ee:	fff58793          	addi	a5,a1,-1
d:\CH573FEVT\CH573F_TFT\obj/../src/TFTc/TFT_CAD.c:107
{
     8f2:	1101                	addi	sp,sp,-32
d:\CH573FEVT\CH573F_TFT\obj/../src/TFTc/TFT_CAD.c:111
	TFT_Set_Address(htft, x, y, x + width - 1, y); // 璁剧疆板绐
     8f4:	97b6                	add	a5,a5,a3
d:\CH573FEVT\CH573F_TFT\obj/../src/TFTc/TFT_CAD.c:107
{
     8f6:	c84a                	sw	s2,16(sp)
     8f8:	8936                	mv	s2,a3
d:\CH573FEVT\CH573F_TFT\obj/../src/TFTc/TFT_CAD.c:111
	TFT_Set_Address(htft, x, y, x + width - 1, y); // 璁剧疆板绐
     8fa:	01079693          	slli	a3,a5,0x10
d:\CH573FEVT\CH573F_TFT\obj/../src/TFTc/TFT_CAD.c:107
{
     8fe:	c64e                	sw	s3,12(sp)
d:\CH573FEVT\CH573F_TFT\obj/../src/TFTc/TFT_CAD.c:111
	TFT_Set_Address(htft, x, y, x + width - 1, y); // 璁剧疆板绐
     900:	82c1                	srli	a3,a3,0x10
     902:	89ba                	mv	s3,a4
     904:	8732                	mv	a4,a2
d:\CH573FEVT\CH573F_TFT\obj/../src/TFTc/TFT_CAD.c:107
{
     906:	ce06                	sw	ra,28(sp)
     908:	cc22                	sw	s0,24(sp)
     90a:	ca26                	sw	s1,20(sp)
     90c:	842a                	mv	s0,a0
d:\CH573FEVT\CH573F_TFT\obj/../src/TFTc/TFT_CAD.c:111
	TFT_Set_Address(htft, x, y, x + width - 1, y); // 璁剧疆板绐
     90e:	1d0010ef          	jal	ra,1ade <TFT_Set_Address>
d:\CH573FEVT\CH573F_TFT\obj/../src/TFTc/TFT_CAD.c:112
	TFT_Reset_Buffer(htft);						   // 缃缂插
     912:	8522                	mv	a0,s0
     914:	0b8010ef          	jal	ra,19cc <TFT_Reset_Buffer>
d:\CH573FEVT\CH573F_TFT\obj/../src/TFTc/TFT_CAD.c:115

	// 濉绱扮插
	for (uint16_t i = 0; i < width; i++)
     918:	4481                	li	s1,0
     91a:	0485                	addi	s1,s1,1
     91c:	04c2                	slli	s1,s1,0x10
d:\CH573FEVT\CH573F_TFT\obj/../src/TFTc/TFT_CAD.c:117
	{
		TFT_Buffer_Write16(htft, color);
     91e:	85ce                	mv	a1,s3
     920:	8522                	mv	a0,s0
d:\CH573FEVT\CH573F_TFT\obj/../src/TFTc/TFT_CAD.c:115
	for (uint16_t i = 0; i < width; i++)
     922:	80c1                	srli	s1,s1,0x10
d:\CH573FEVT\CH573F_TFT\obj/../src/TFTc/TFT_CAD.c:117
		TFT_Buffer_Write16(htft, color);
     924:	04c010ef          	jal	ra,1970 <TFT_Buffer_Write16>
d:\CH573FEVT\CH573F_TFT\obj/../src/TFTc/TFT_CAD.c:115
	for (uint16_t i = 0; i < width; i++)
     928:	fe9919e3          	bne	s2,s1,91a <TFT_Draw_Fast_HLine+0x2e>
d:\CH573FEVT\CH573F_TFT\obj/../src/TFTc/TFT_CAD.c:120
	}

	TFT_Flush_Buffer(htft, 1); // 骞剁寰瀹
     92c:	8522                	mv	a0,s0
d:\CH573FEVT\CH573F_TFT\obj/../src/TFTc/TFT_CAD.c:121
}
     92e:	4462                	lw	s0,24(sp)
     930:	40f2                	lw	ra,28(sp)
     932:	44d2                	lw	s1,20(sp)
     934:	4942                	lw	s2,16(sp)
     936:	49b2                	lw	s3,12(sp)
d:\CH573FEVT\CH573F_TFT\obj/../src/TFTc/TFT_CAD.c:120
	TFT_Flush_Buffer(htft, 1); // 骞剁寰瀹
     938:	4585                	li	a1,1
d:\CH573FEVT\CH573F_TFT\obj/../src/TFTc/TFT_CAD.c:121
}
     93a:	6105                	addi	sp,sp,32
d:\CH573FEVT\CH573F_TFT\obj/../src/TFTc/TFT_CAD.c:120
	TFT_Flush_Buffer(htft, 1); // 骞剁寰瀹
     93c:	00e0106f          	j	194a <TFT_Flush_Buffer>
     940:	8082                	ret

00000942 <TFT_Draw_Fast_VLine>:
TFT_Draw_Fast_VLine():
d:\CH573FEVT\CH573F_TFT\obj/../src/TFTc/TFT_CAD.c:134
 * @param  color    绾跨棰 (RGB565煎)
 * @retval 
 */
void TFT_Draw_Fast_VLine(TFT_HandleTypeDef *htft, uint16_t x, uint16_t y, uint16_t height, uint16_t color)
{
	if (height == 0)
     942:	cab1                	beqz	a3,996 <TFT_Draw_Fast_VLine+0x54>
d:\CH573FEVT\CH573F_TFT\obj/../src/TFTc/TFT_CAD.c:133
{
     944:	1101                	addi	sp,sp,-32
d:\CH573FEVT\CH573F_TFT\obj/../src/TFTc/TFT_CAD.c:137
		return;

	TFT_Set_Address(htft, x, y, x, y + height - 1); // 璁剧疆板绐
     946:	fff60793          	addi	a5,a2,-1
d:\CH573FEVT\CH573F_TFT\obj/../src/TFTc/TFT_CAD.c:133
{
     94a:	c84a                	sw	s2,16(sp)
     94c:	8936                	mv	s2,a3
d:\CH573FEVT\CH573F_TFT\obj/../src/TFTc/TFT_CAD.c:137
	TFT_Set_Address(htft, x, y, x, y + height - 1); // 璁剧疆板绐
     94e:	97ca                	add	a5,a5,s2
d:\CH573FEVT\CH573F_TFT\obj/../src/TFTc/TFT_CAD.c:133
{
     950:	c64e                	sw	s3,12(sp)
     952:	89ba                	mv	s3,a4
d:\CH573FEVT\CH573F_TFT\obj/../src/TFTc/TFT_CAD.c:137
	TFT_Set_Address(htft, x, y, x, y + height - 1); // 璁剧疆板绐
     954:	01079713          	slli	a4,a5,0x10
     958:	86ae                	mv	a3,a1
     95a:	8341                	srli	a4,a4,0x10
d:\CH573FEVT\CH573F_TFT\obj/../src/TFTc/TFT_CAD.c:133
{
     95c:	ce06                	sw	ra,28(sp)
     95e:	cc22                	sw	s0,24(sp)
     960:	ca26                	sw	s1,20(sp)
     962:	842a                	mv	s0,a0
d:\CH573FEVT\CH573F_TFT\obj/../src/TFTc/TFT_CAD.c:137
	TFT_Set_Address(htft, x, y, x, y + height - 1); // 璁剧疆板绐
     964:	17a010ef          	jal	ra,1ade <TFT_Set_Address>
d:\CH573FEVT\CH573F_TFT\obj/../src/TFTc/TFT_CAD.c:138
	TFT_Reset_Buffer(htft);							// 缃缂插
     968:	8522                	mv	a0,s0
     96a:	062010ef          	jal	ra,19cc <TFT_Reset_Buffer>
d:\CH573FEVT\CH573F_TFT\obj/../src/TFTc/TFT_CAD.c:141

	// 濉绱扮插
	for (uint16_t i = 0; i < height; i++)
     96e:	4481                	li	s1,0
     970:	0485                	addi	s1,s1,1
     972:	04c2                	slli	s1,s1,0x10
d:\CH573FEVT\CH573F_TFT\obj/../src/TFTc/TFT_CAD.c:143
	{
		TFT_Buffer_Write16(htft, color);
     974:	85ce                	mv	a1,s3
     976:	8522                	mv	a0,s0
d:\CH573FEVT\CH573F_TFT\obj/../src/TFTc/TFT_CAD.c:141
	for (uint16_t i = 0; i < height; i++)
     978:	80c1                	srli	s1,s1,0x10
d:\CH573FEVT\CH573F_TFT\obj/../src/TFTc/TFT_CAD.c:143
		TFT_Buffer_Write16(htft, color);
     97a:	7f7000ef          	jal	ra,1970 <TFT_Buffer_Write16>
d:\CH573FEVT\CH573F_TFT\obj/../src/TFTc/TFT_CAD.c:141
	for (uint16_t i = 0; i < height; i++)
     97e:	fe9919e3          	bne	s2,s1,970 <TFT_Draw_Fast_VLine+0x2e>
d:\CH573FEVT\CH573F_TFT\obj/../src/TFTc/TFT_CAD.c:146
	}

	TFT_Flush_Buffer(htft, 1); // 骞剁寰瀹
     982:	8522                	mv	a0,s0
d:\CH573FEVT\CH573F_TFT\obj/../src/TFTc/TFT_CAD.c:147
}
     984:	4462                	lw	s0,24(sp)
     986:	40f2                	lw	ra,28(sp)
     988:	44d2                	lw	s1,20(sp)
     98a:	4942                	lw	s2,16(sp)
     98c:	49b2                	lw	s3,12(sp)
d:\CH573FEVT\CH573F_TFT\obj/../src/TFTc/TFT_CAD.c:146
	TFT_Flush_Buffer(htft, 1); // 骞剁寰瀹
     98e:	4585                	li	a1,1
d:\CH573FEVT\CH573F_TFT\obj/../src/TFTc/TFT_CAD.c:147
}
     990:	6105                	addi	sp,sp,32
d:\CH573FEVT\CH573F_TFT\obj/../src/TFTc/TFT_CAD.c:146
	TFT_Flush_Buffer(htft, 1); // 骞剁寰瀹
     992:	7b90006f          	j	194a <TFT_Flush_Buffer>
     996:	8082                	ret

00000998 <TFT_Draw_Line>:
TFT_Draw_Line():
d:\CH573FEVT\CH573F_TFT\obj/../src/TFTc/TFT_CAD.c:160
 * @param  y2      缁硅
 * @param  color   绾跨棰 (RGB565煎)
 * @retval 
 */
void TFT_Draw_Line(TFT_HandleTypeDef *htft, uint16_t x1, uint16_t y1, uint16_t x2, uint16_t y2, uint16_t color)
{
     998:	7139                	addi	sp,sp,-64
     99a:	d64e                	sw	s3,44(sp)
     99c:	d05a                	sw	s6,32(sp)
     99e:	ce5e                	sw	s7,28(sp)
     9a0:	de06                	sw	ra,60(sp)
     9a2:	dc22                	sw	s0,56(sp)
     9a4:	da26                	sw	s1,52(sp)
     9a6:	d84a                	sw	s2,48(sp)
     9a8:	d452                	sw	s4,40(sp)
     9aa:	d256                	sw	s5,36(sp)
     9ac:	cc62                	sw	s8,24(sp)
     9ae:	ca66                	sw	s9,20(sp)
     9b0:	c86a                	sw	s10,16(sp)
     9b2:	c66e                	sw	s11,12(sp)
     9b4:	8b2a                	mv	s6,a0
     9b6:	89b6                	mv	s3,a3
     9b8:	8bbe                	mv	s7,a5
d:\CH573FEVT\CH573F_TFT\obj/../src/TFTc/TFT_CAD.c:162
	// 浼锛澶姘村钩绾
	if (y1 == y2)
     9ba:	02e61d63          	bne	a2,a4,9f4 <TFT_Draw_Line+0x5c>
d:\CH573FEVT\CH573F_TFT\obj/../src/TFTc/TFT_CAD.c:164
	{
		if (x1 > x2) // 纭淇 x1 <= x2
     9be:	00b6f563          	bgeu	a3,a1,9c8 <TFT_Draw_Line+0x30>
     9c2:	87ae                	mv	a5,a1
     9c4:	89be                	mv	s3,a5
     9c6:	85b6                	mv	a1,a3
d:\CH573FEVT\CH573F_TFT\obj/../src/TFTc/TFT_CAD.c:168 (discriminator 1)
		{
			SWAP_INT16(x1, x2); // 浣跨ㄥ浜ゆ
		}
		TFT_Draw_Fast_HLine(htft, x1, y1, x2 - x1 + 1, color); // 浣跨ㄥ揩姘村钩绾垮芥
     9c8:	00198693          	addi	a3,s3,1
d:\CH573FEVT\CH573F_TFT\obj/../src/TFTc/TFT_CAD.c:227 (discriminator 1)
	}
	TFT_Draw_Point(htft, currentX, currentY, color); // 缁剁 (Bresenham 寰涓缁)

	// 濡 TFT_Write_Data16 ユ逛负诲+缂诧介瑕ㄦゅ娣诲 Flush
	TFT_Flush_Buffer(htft, 1); // 缁舵绾垮锋扮插猴涓 Draw_Point 涓锋
}
     9cc:	5462                	lw	s0,56(sp)
     9ce:	50f2                	lw	ra,60(sp)
     9d0:	54d2                	lw	s1,52(sp)
     9d2:	5942                	lw	s2,48(sp)
     9d4:	59b2                	lw	s3,44(sp)
     9d6:	5a22                	lw	s4,40(sp)
     9d8:	5a92                	lw	s5,36(sp)
     9da:	4c62                	lw	s8,24(sp)
     9dc:	4cd2                	lw	s9,20(sp)
     9de:	4d42                	lw	s10,16(sp)
     9e0:	4db2                	lw	s11,12(sp)
d:\CH573FEVT\CH573F_TFT\obj/../src/TFTc/TFT_CAD.c:168 (discriminator 1)
		TFT_Draw_Fast_HLine(htft, x1, y1, x2 - x1 + 1, color); // 浣跨ㄥ揩姘村钩绾垮芥
     9e2:	8e8d                	sub	a3,a3,a1
     9e4:	875e                	mv	a4,s7
     9e6:	855a                	mv	a0,s6
d:\CH573FEVT\CH573F_TFT\obj/../src/TFTc/TFT_CAD.c:227 (discriminator 1)
}
     9e8:	4bf2                	lw	s7,28(sp)
     9ea:	5b02                	lw	s6,32(sp)
d:\CH573FEVT\CH573F_TFT\obj/../src/TFTc/TFT_CAD.c:168 (discriminator 1)
		TFT_Draw_Fast_HLine(htft, x1, y1, x2 - x1 + 1, color); // 浣跨ㄥ揩姘村钩绾垮芥
     9ec:	06c2                	slli	a3,a3,0x10
     9ee:	82c1                	srli	a3,a3,0x10
d:\CH573FEVT\CH573F_TFT\obj/../src/TFTc/TFT_CAD.c:227 (discriminator 1)
}
     9f0:	6121                	addi	sp,sp,64
d:\CH573FEVT\CH573F_TFT\obj/../src/TFTc/TFT_CAD.c:168 (discriminator 1)
		TFT_Draw_Fast_HLine(htft, x1, y1, x2 - x1 + 1, color); // 浣跨ㄥ揩姘村钩绾垮芥
     9f2:	bded                	j	8ec <TFT_Draw_Fast_HLine>
     9f4:	893a                	mv	s2,a4
d:\CH573FEVT\CH573F_TFT\obj/../src/TFTc/TFT_CAD.c:173
	if (x1 == x2)
     9f6:	02d59d63          	bne	a1,a3,a30 <TFT_Draw_Line+0x98>
d:\CH573FEVT\CH573F_TFT\obj/../src/TFTc/TFT_CAD.c:175
		if (y1 > y2) // 纭淇 y1 <= y2
     9fa:	00c77563          	bgeu	a4,a2,a04 <TFT_Draw_Line+0x6c>
     9fe:	87b2                	mv	a5,a2
     a00:	893e                	mv	s2,a5
     a02:	863a                	mv	a2,a4
d:\CH573FEVT\CH573F_TFT\obj/../src/TFTc/TFT_CAD.c:179 (discriminator 1)
		TFT_Draw_Fast_VLine(htft, x1, y1, y2 - y1 + 1, color); // 浣跨ㄥ揩寸嚎芥
     a04:	00190693          	addi	a3,s2,1
d:\CH573FEVT\CH573F_TFT\obj/../src/TFTc/TFT_CAD.c:227 (discriminator 1)
}
     a08:	5462                	lw	s0,56(sp)
     a0a:	50f2                	lw	ra,60(sp)
     a0c:	54d2                	lw	s1,52(sp)
     a0e:	5942                	lw	s2,48(sp)
     a10:	59b2                	lw	s3,44(sp)
     a12:	5a22                	lw	s4,40(sp)
     a14:	5a92                	lw	s5,36(sp)
     a16:	4c62                	lw	s8,24(sp)
     a18:	4cd2                	lw	s9,20(sp)
     a1a:	4d42                	lw	s10,16(sp)
     a1c:	4db2                	lw	s11,12(sp)
d:\CH573FEVT\CH573F_TFT\obj/../src/TFTc/TFT_CAD.c:179 (discriminator 1)
		TFT_Draw_Fast_VLine(htft, x1, y1, y2 - y1 + 1, color); // 浣跨ㄥ揩寸嚎芥
     a1e:	8e91                	sub	a3,a3,a2
     a20:	875e                	mv	a4,s7
     a22:	855a                	mv	a0,s6
d:\CH573FEVT\CH573F_TFT\obj/../src/TFTc/TFT_CAD.c:227 (discriminator 1)
}
     a24:	4bf2                	lw	s7,28(sp)
     a26:	5b02                	lw	s6,32(sp)
d:\CH573FEVT\CH573F_TFT\obj/../src/TFTc/TFT_CAD.c:179 (discriminator 1)
		TFT_Draw_Fast_VLine(htft, x1, y1, y2 - y1 + 1, color); // 浣跨ㄥ揩寸嚎芥
     a28:	06c2                	slli	a3,a3,0x10
     a2a:	82c1                	srli	a3,a3,0x10
d:\CH573FEVT\CH573F_TFT\obj/../src/TFTc/TFT_CAD.c:227 (discriminator 1)
}
     a2c:	6121                	addi	sp,sp,64
d:\CH573FEVT\CH573F_TFT\obj/../src/TFTc/TFT_CAD.c:179 (discriminator 1)
		TFT_Draw_Fast_VLine(htft, x1, y1, y2 - y1 + 1, color); // 浣跨ㄥ揩寸嚎芥
     a2e:	bf11                	j	942 <TFT_Draw_Fast_VLine>
d:\CH573FEVT\CH573F_TFT\obj/../src/TFTc/TFT_CAD.c:184
	int16_t deltaX = abs(x2 - x1);		// X 杞磋绂荤瀵瑰
     a30:	40b68a33          	sub	s4,a3,a1
     a34:	41fa5793          	srai	a5,s4,0x1f
     a38:	0147ca33          	xor	s4,a5,s4
d:\CH573FEVT\CH573F_TFT\obj/../src/TFTc/TFT_CAD.c:185
	int16_t deltaY = abs(y2 - y1);		// Y 杞磋绂荤瀵瑰
     a3c:	40c70ab3          	sub	s5,a4,a2
d:\CH573FEVT\CH573F_TFT\obj/../src/TFTc/TFT_CAD.c:184
	int16_t deltaX = abs(x2 - x1);		// X 杞磋绂荤瀵瑰
     a40:	40fa0a33          	sub	s4,s4,a5
d:\CH573FEVT\CH573F_TFT\obj/../src/TFTc/TFT_CAD.c:185
	int16_t deltaY = abs(y2 - y1);		// Y 杞磋绂荤瀵瑰
     a44:	41fad793          	srai	a5,s5,0x1f
     a48:	0157cab3          	xor	s5,a5,s5
     a4c:	40fa8ab3          	sub	s5,s5,a5
d:\CH573FEVT\CH573F_TFT\obj/../src/TFTc/TFT_CAD.c:184
	int16_t deltaX = abs(x2 - x1);		// X 杞磋绂荤瀵瑰
     a50:	010a1513          	slli	a0,s4,0x10
d:\CH573FEVT\CH573F_TFT\obj/../src/TFTc/TFT_CAD.c:185
	int16_t deltaY = abs(y2 - y1);		// Y 杞磋绂荤瀵瑰
     a54:	010a9693          	slli	a3,s5,0x10
d:\CH573FEVT\CH573F_TFT\obj/../src/TFTc/TFT_CAD.c:184
	int16_t deltaX = abs(x2 - x1);		// X 杞磋绂荤瀵瑰
     a58:	8541                	srai	a0,a0,0x10
d:\CH573FEVT\CH573F_TFT\obj/../src/TFTc/TFT_CAD.c:185
	int16_t deltaY = abs(y2 - y1);		// Y 杞磋绂荤瀵瑰
     a5a:	86c1                	srai	a3,a3,0x10
d:\CH573FEVT\CH573F_TFT\obj/../src/TFTc/TFT_CAD.c:186
	int16_t stepX = (x1 < x2) ? 1 : -1; // X 杞存ヨ瑰
     a5c:	4d85                	li	s11,1
     a5e:	0135e363          	bltu	a1,s3,a64 <TFT_Draw_Line+0xcc>
     a62:	5dfd                	li	s11,-1
d:\CH573FEVT\CH573F_TFT\obj/../src/TFTc/TFT_CAD.c:187
	int16_t stepY = (y1 < y2) ? 1 : -1; // Y 杞存ヨ瑰
     a64:	4d05                	li	s10,1
     a66:	01266363          	bltu	a2,s2,a6c <TFT_Draw_Line+0xd4>
     a6a:	5d7d                	li	s10,-1
d:\CH573FEVT\CH573F_TFT\obj/../src/TFTc/TFT_CAD.c:188
	int16_t currentX = x1;
     a6c:	01059493          	slli	s1,a1,0x10
d:\CH573FEVT\CH573F_TFT\obj/../src/TFTc/TFT_CAD.c:189
	int16_t currentY = y1;
     a70:	01061413          	slli	s0,a2,0x10
d:\CH573FEVT\CH573F_TFT\obj/../src/TFTc/TFT_CAD.c:188
	int16_t currentX = x1;
     a74:	84c1                	srai	s1,s1,0x10
d:\CH573FEVT\CH573F_TFT\obj/../src/TFTc/TFT_CAD.c:189
	int16_t currentY = y1;
     a76:	8441                	srai	s0,s0,0x10
d:\CH573FEVT\CH573F_TFT\obj/../src/TFTc/TFT_CAD.c:193
	if (deltaX > deltaY) // 浠 X 杞翠负涓昏酱 (缁瀵瑰 < 1)
     a78:	08a6da63          	bge	a3,a0,b0c <TFT_Draw_Line+0x174>
d:\CH573FEVT\CH573F_TFT\obj/../src/TFTc/TFT_CAD.c:195
		errorTerm = deltaX / 2; // 濮璇宸
     a7c:	4909                	li	s2,2
     a7e:	03254933          	div	s2,a0,s2
d:\CH573FEVT\CH573F_TFT\obj/../src/TFTc/TFT_CAD.c:196
		while (currentX != x2)	// 寰村板拌揪缁 X 
     a82:	01049c93          	slli	s9,s1,0x10
     a86:	01041c13          	slli	s8,s0,0x10
     a8a:	010cdc93          	srli	s9,s9,0x10
     a8e:	010c5c13          	srli	s8,s8,0x10
     a92:	02999d63          	bne	s3,s1,acc <TFT_Draw_Line+0x134>
d:\CH573FEVT\CH573F_TFT\obj/../src/TFTc/TFT_CAD.c:223
	TFT_Draw_Point(htft, currentX, currentY, color); // 缁剁 (Bresenham 寰涓缁)
     a96:	01041613          	slli	a2,s0,0x10
     a9a:	01049593          	slli	a1,s1,0x10
     a9e:	855a                	mv	a0,s6
     aa0:	86de                	mv	a3,s7
     aa2:	81c1                	srli	a1,a1,0x10
     aa4:	8241                	srli	a2,a2,0x10
     aa6:	3b4d                	jal	858 <TFT_Draw_Point>
d:\CH573FEVT\CH573F_TFT\obj/../src/TFTc/TFT_CAD.c:227
}
     aa8:	5462                	lw	s0,56(sp)
     aaa:	50f2                	lw	ra,60(sp)
     aac:	54d2                	lw	s1,52(sp)
     aae:	5942                	lw	s2,48(sp)
     ab0:	59b2                	lw	s3,44(sp)
     ab2:	5a22                	lw	s4,40(sp)
     ab4:	5a92                	lw	s5,36(sp)
     ab6:	4bf2                	lw	s7,28(sp)
     ab8:	4c62                	lw	s8,24(sp)
     aba:	4cd2                	lw	s9,20(sp)
     abc:	4d42                	lw	s10,16(sp)
     abe:	4db2                	lw	s11,12(sp)
d:\CH573FEVT\CH573F_TFT\obj/../src/TFTc/TFT_CAD.c:226
	TFT_Flush_Buffer(htft, 1); // 缁舵绾垮锋扮插猴涓 Draw_Point 涓锋
     ac0:	855a                	mv	a0,s6
d:\CH573FEVT\CH573F_TFT\obj/../src/TFTc/TFT_CAD.c:227
}
     ac2:	5b02                	lw	s6,32(sp)
d:\CH573FEVT\CH573F_TFT\obj/../src/TFTc/TFT_CAD.c:226
	TFT_Flush_Buffer(htft, 1); // 缁舵绾垮锋扮插猴涓 Draw_Point 涓锋
     ac4:	4585                	li	a1,1
d:\CH573FEVT\CH573F_TFT\obj/../src/TFTc/TFT_CAD.c:227
}
     ac6:	6121                	addi	sp,sp,64
d:\CH573FEVT\CH573F_TFT\obj/../src/TFTc/TFT_CAD.c:226
	TFT_Flush_Buffer(htft, 1); // 缁舵绾垮锋扮插猴涓 Draw_Point 涓锋
     ac8:	6830006f          	j	194a <TFT_Flush_Buffer>
d:\CH573FEVT\CH573F_TFT\obj/../src/TFTc/TFT_CAD.c:198
			TFT_Draw_Point(htft, currentX, currentY, color); // 缁跺
     acc:	86de                	mv	a3,s7
     ace:	8662                	mv	a2,s8
     ad0:	85e6                	mv	a1,s9
     ad2:	855a                	mv	a0,s6
d:\CH573FEVT\CH573F_TFT\obj/../src/TFTc/TFT_CAD.c:199
			errorTerm -= deltaY;
     ad4:	41590933          	sub	s2,s2,s5
d:\CH573FEVT\CH573F_TFT\obj/../src/TFTc/TFT_CAD.c:198
			TFT_Draw_Point(htft, currentX, currentY, color); // 缁跺
     ad8:	3341                	jal	858 <TFT_Draw_Point>
d:\CH573FEVT\CH573F_TFT\obj/../src/TFTc/TFT_CAD.c:199
			errorTerm -= deltaY;
     ada:	01091793          	slli	a5,s2,0x10
     ade:	83c1                	srli	a5,a5,0x10
     ae0:	01079913          	slli	s2,a5,0x10
     ae4:	41095913          	srai	s2,s2,0x10
d:\CH573FEVT\CH573F_TFT\obj/../src/TFTc/TFT_CAD.c:200
			if (errorTerm < 0)
     ae8:	00095c63          	bgez	s2,b00 <TFT_Draw_Line+0x168>
d:\CH573FEVT\CH573F_TFT\obj/../src/TFTc/TFT_CAD.c:202
				currentY += stepY; // Y 绉诲ㄤ姝
     aec:	01ac0633          	add	a2,s8,s10
d:\CH573FEVT\CH573F_TFT\obj/../src/TFTc/TFT_CAD.c:203
				errorTerm += deltaX;
     af0:	01478933          	add	s2,a5,s4
d:\CH573FEVT\CH573F_TFT\obj/../src/TFTc/TFT_CAD.c:202
				currentY += stepY; // Y 绉诲ㄤ姝
     af4:	01061413          	slli	s0,a2,0x10
d:\CH573FEVT\CH573F_TFT\obj/../src/TFTc/TFT_CAD.c:203
				errorTerm += deltaX;
     af8:	0942                	slli	s2,s2,0x10
d:\CH573FEVT\CH573F_TFT\obj/../src/TFTc/TFT_CAD.c:202
				currentY += stepY; // Y 绉诲ㄤ姝
     afa:	8441                	srai	s0,s0,0x10
d:\CH573FEVT\CH573F_TFT\obj/../src/TFTc/TFT_CAD.c:203
				errorTerm += deltaX;
     afc:	41095913          	srai	s2,s2,0x10
d:\CH573FEVT\CH573F_TFT\obj/../src/TFTc/TFT_CAD.c:205
			currentX += stepX; // X 绉诲ㄤ姝
     b00:	01bc85b3          	add	a1,s9,s11
     b04:	01059493          	slli	s1,a1,0x10
     b08:	84c1                	srai	s1,s1,0x10
     b0a:	bfa5                	j	a82 <TFT_Draw_Line+0xea>
d:\CH573FEVT\CH573F_TFT\obj/../src/TFTc/TFT_CAD.c:210
		errorTerm = deltaY / 2; // 濮璇宸
     b0c:	4989                	li	s3,2
     b0e:	0336c9b3          	div	s3,a3,s3
d:\CH573FEVT\CH573F_TFT\obj/../src/TFTc/TFT_CAD.c:211
		while (currentY != y2)	// 寰村板拌揪缁 Y 
     b12:	01049c93          	slli	s9,s1,0x10
     b16:	01041c13          	slli	s8,s0,0x10
     b1a:	010cdc93          	srli	s9,s9,0x10
     b1e:	010c5c13          	srli	s8,s8,0x10
     b22:	f6890ae3          	beq	s2,s0,a96 <TFT_Draw_Line+0xfe>
d:\CH573FEVT\CH573F_TFT\obj/../src/TFTc/TFT_CAD.c:213
			TFT_Draw_Point(htft, currentX, currentY, color); // 缁跺
     b26:	86de                	mv	a3,s7
     b28:	8662                	mv	a2,s8
     b2a:	85e6                	mv	a1,s9
     b2c:	855a                	mv	a0,s6
d:\CH573FEVT\CH573F_TFT\obj/../src/TFTc/TFT_CAD.c:214
			errorTerm -= deltaX;
     b2e:	414989b3          	sub	s3,s3,s4
d:\CH573FEVT\CH573F_TFT\obj/../src/TFTc/TFT_CAD.c:213
			TFT_Draw_Point(htft, currentX, currentY, color); // 缁跺
     b32:	331d                	jal	858 <TFT_Draw_Point>
d:\CH573FEVT\CH573F_TFT\obj/../src/TFTc/TFT_CAD.c:214
			errorTerm -= deltaX;
     b34:	01099793          	slli	a5,s3,0x10
     b38:	83c1                	srli	a5,a5,0x10
     b3a:	01079993          	slli	s3,a5,0x10
     b3e:	4109d993          	srai	s3,s3,0x10
d:\CH573FEVT\CH573F_TFT\obj/../src/TFTc/TFT_CAD.c:215
			if (errorTerm < 0)
     b42:	0009dc63          	bgez	s3,b5a <TFT_Draw_Line+0x1c2>
d:\CH573FEVT\CH573F_TFT\obj/../src/TFTc/TFT_CAD.c:217
				currentX += stepX; // X 绉诲ㄤ姝
     b46:	01bc85b3          	add	a1,s9,s11
d:\CH573FEVT\CH573F_TFT\obj/../src/TFTc/TFT_CAD.c:218
				errorTerm += deltaY;
     b4a:	015789b3          	add	s3,a5,s5
d:\CH573FEVT\CH573F_TFT\obj/../src/TFTc/TFT_CAD.c:217
				currentX += stepX; // X 绉诲ㄤ姝
     b4e:	01059493          	slli	s1,a1,0x10
d:\CH573FEVT\CH573F_TFT\obj/../src/TFTc/TFT_CAD.c:218
				errorTerm += deltaY;
     b52:	09c2                	slli	s3,s3,0x10
d:\CH573FEVT\CH573F_TFT\obj/../src/TFTc/TFT_CAD.c:217
				currentX += stepX; // X 绉诲ㄤ姝
     b54:	84c1                	srai	s1,s1,0x10
d:\CH573FEVT\CH573F_TFT\obj/../src/TFTc/TFT_CAD.c:218
				errorTerm += deltaY;
     b56:	4109d993          	srai	s3,s3,0x10
d:\CH573FEVT\CH573F_TFT\obj/../src/TFTc/TFT_CAD.c:220
			currentY += stepY; // Y 绉诲ㄤ姝
     b5a:	01ac0633          	add	a2,s8,s10
     b5e:	01061413          	slli	s0,a2,0x10
     b62:	8441                	srai	s0,s0,0x10
     b64:	b77d                	j	b12 <TFT_Draw_Line+0x17a>

00000b66 <TFT_Draw_Rectangle>:
TFT_Draw_Rectangle():
d:\CH573FEVT\CH573F_TFT\obj/../src/TFTc/TFT_CAD.c:240
 * @param  y2      充瑙琛
 * @param  color   ╁舰杈规棰 (RGB565煎)
 * @retval 
 */
void TFT_Draw_Rectangle(TFT_HandleTypeDef *htft, uint16_t x1, uint16_t y1, uint16_t x2, uint16_t y2, uint16_t color)
{
     b66:	1101                	addi	sp,sp,-32
     b68:	ca26                	sw	s1,20(sp)
d:\CH573FEVT\CH573F_TFT\obj/../src/TFTc/TFT_CAD.c:241
	TFT_Draw_Fast_HLine(htft, x1, y1, x2 - x1 + 1, color); // 涓杈
     b6a:	40b684b3          	sub	s1,a3,a1
     b6e:	0485                	addi	s1,s1,1
     b70:	04c2                	slli	s1,s1,0x10
     b72:	80c1                	srli	s1,s1,0x10
d:\CH573FEVT\CH573F_TFT\obj/../src/TFTc/TFT_CAD.c:240
{
     b74:	cc22                	sw	s0,24(sp)
     b76:	c05a                	sw	s6,0(sp)
     b78:	843a                	mv	s0,a4
     b7a:	8b36                	mv	s6,a3
d:\CH573FEVT\CH573F_TFT\obj/../src/TFTc/TFT_CAD.c:241
	TFT_Draw_Fast_HLine(htft, x1, y1, x2 - x1 + 1, color); // 涓杈
     b7c:	873e                	mv	a4,a5
     b7e:	86a6                	mv	a3,s1
d:\CH573FEVT\CH573F_TFT\obj/../src/TFTc/TFT_CAD.c:240
{
     b80:	ce06                	sw	ra,28(sp)
     b82:	c84a                	sw	s2,16(sp)
     b84:	c64e                	sw	s3,12(sp)
     b86:	c452                	sw	s4,8(sp)
     b88:	c256                	sw	s5,4(sp)
     b8a:	893e                	mv	s2,a5
     b8c:	8a32                	mv	s4,a2
     b8e:	89aa                	mv	s3,a0
     b90:	8aae                	mv	s5,a1
d:\CH573FEVT\CH573F_TFT\obj/../src/TFTc/TFT_CAD.c:241
	TFT_Draw_Fast_HLine(htft, x1, y1, x2 - x1 + 1, color); // 涓杈
     b92:	3ba9                	jal	8ec <TFT_Draw_Fast_HLine>
d:\CH573FEVT\CH573F_TFT\obj/../src/TFTc/TFT_CAD.c:242
	TFT_Draw_Fast_HLine(htft, x1, y2, x2 - x1 + 1, color); // 涓杈
     b94:	8622                	mv	a2,s0
d:\CH573FEVT\CH573F_TFT\obj/../src/TFTc/TFT_CAD.c:243
	TFT_Draw_Fast_VLine(htft, x1, y1, y2 - y1 + 1, color); // 宸杈
     b96:	0405                	addi	s0,s0,1
     b98:	41440433          	sub	s0,s0,s4
d:\CH573FEVT\CH573F_TFT\obj/../src/TFTc/TFT_CAD.c:242
	TFT_Draw_Fast_HLine(htft, x1, y2, x2 - x1 + 1, color); // 涓杈
     b9c:	874a                	mv	a4,s2
     b9e:	86a6                	mv	a3,s1
     ba0:	85d6                	mv	a1,s5
     ba2:	854e                	mv	a0,s3
d:\CH573FEVT\CH573F_TFT\obj/../src/TFTc/TFT_CAD.c:243
	TFT_Draw_Fast_VLine(htft, x1, y1, y2 - y1 + 1, color); // 宸杈
     ba4:	0442                	slli	s0,s0,0x10
d:\CH573FEVT\CH573F_TFT\obj/../src/TFTc/TFT_CAD.c:242
	TFT_Draw_Fast_HLine(htft, x1, y2, x2 - x1 + 1, color); // 涓杈
     ba6:	3399                	jal	8ec <TFT_Draw_Fast_HLine>
d:\CH573FEVT\CH573F_TFT\obj/../src/TFTc/TFT_CAD.c:243
	TFT_Draw_Fast_VLine(htft, x1, y1, y2 - y1 + 1, color); // 宸杈
     ba8:	8041                	srli	s0,s0,0x10
     baa:	874a                	mv	a4,s2
     bac:	86a2                	mv	a3,s0
     bae:	8652                	mv	a2,s4
     bb0:	85d6                	mv	a1,s5
     bb2:	854e                	mv	a0,s3
     bb4:	3379                	jal	942 <TFT_Draw_Fast_VLine>
d:\CH573FEVT\CH573F_TFT\obj/../src/TFTc/TFT_CAD.c:244
	TFT_Draw_Fast_VLine(htft, x2, y1, y2 - y1 + 1, color); // 宠竟
     bb6:	86a2                	mv	a3,s0
d:\CH573FEVT\CH573F_TFT\obj/../src/TFTc/TFT_CAD.c:245
}
     bb8:	4462                	lw	s0,24(sp)
     bba:	40f2                	lw	ra,28(sp)
     bbc:	44d2                	lw	s1,20(sp)
     bbe:	4a92                	lw	s5,4(sp)
d:\CH573FEVT\CH573F_TFT\obj/../src/TFTc/TFT_CAD.c:244
	TFT_Draw_Fast_VLine(htft, x2, y1, y2 - y1 + 1, color); // 宠竟
     bc0:	874a                	mv	a4,s2
     bc2:	8652                	mv	a2,s4
d:\CH573FEVT\CH573F_TFT\obj/../src/TFTc/TFT_CAD.c:245
}
     bc4:	4942                	lw	s2,16(sp)
     bc6:	4a22                	lw	s4,8(sp)
d:\CH573FEVT\CH573F_TFT\obj/../src/TFTc/TFT_CAD.c:244
	TFT_Draw_Fast_VLine(htft, x2, y1, y2 - y1 + 1, color); // 宠竟
     bc8:	85da                	mv	a1,s6
     bca:	854e                	mv	a0,s3
d:\CH573FEVT\CH573F_TFT\obj/../src/TFTc/TFT_CAD.c:245
}
     bcc:	4b02                	lw	s6,0(sp)
     bce:	49b2                	lw	s3,12(sp)
     bd0:	6105                	addi	sp,sp,32
d:\CH573FEVT\CH573F_TFT\obj/../src/TFTc/TFT_CAD.c:244
	TFT_Draw_Fast_VLine(htft, x2, y1, y2 - y1 + 1, color); // 宠竟
     bd2:	bb85                	j	942 <TFT_Draw_Fast_VLine>

00000bd4 <TFT_Fill_Rectangle>:
TFT_Fill_Rectangle():
d:\CH573FEVT\CH573F_TFT\obj/../src/TFTc/TFT_CAD.c:259
 * @param  color   ╁舰濉棰 (RGB565煎)
 * @retval 
 */
void TFT_Fill_Rectangle(TFT_HandleTypeDef *htft, uint16_t x1, uint16_t y1, uint16_t x2, uint16_t y2, uint16_t color)
{
	if (x1 > x2)
     bd4:	00b6f563          	bgeu	a3,a1,bde <TFT_Fill_Rectangle+0xa>
     bd8:	882e                	mv	a6,a1
     bda:	85b6                	mv	a1,a3
     bdc:	86c2                	mv	a3,a6
d:\CH573FEVT\CH573F_TFT\obj/../src/TFTc/TFT_CAD.c:266
		uint16_t temp = x1;
		x1 = x2;
		x2 = temp;
	}

	if (y1 > y2)
     bde:	00c77563          	bgeu	a4,a2,be8 <TFT_Fill_Rectangle+0x14>
     be2:	8832                	mv	a6,a2
     be4:	863a                	mv	a2,a4
     be6:	8742                	mv	a4,a6
d:\CH573FEVT\CH573F_TFT\obj/../src/TFTc/TFT_CAD.c:274
		y1 = y2;
		y2 = temp;
	}

	// 存ヨㄥ～哄芥
	TFT_Fill_Area(htft, x1, y1, x2 + 1, y2 + 1, color);
     be8:	0705                	addi	a4,a4,1
     bea:	0685                	addi	a3,a3,1
     bec:	0742                	slli	a4,a4,0x10
     bee:	06c2                	slli	a3,a3,0x10
     bf0:	8341                	srli	a4,a4,0x10
     bf2:	82c1                	srli	a3,a3,0x10
     bf4:	b161                	j	87c <TFT_Fill_Area>

00000bf6 <TFT_Draw_Circle>:
TFT_Draw_Circle():
d:\CH573FEVT\CH573F_TFT\obj/../src/TFTc/TFT_CAD.c:287
 * @param  r       寰
 * @param  color   棰 (RGB565煎)
 * @retval 
 */
void TFT_Draw_Circle(TFT_HandleTypeDef *htft, uint16_t x0, uint16_t y0, uint8_t r, uint16_t color)
{
     bf6:	7139                	addi	sp,sp,-64
     bf8:	d64e                	sw	s3,44(sp)
     bfa:	d256                	sw	s5,36(sp)
     bfc:	de06                	sw	ra,60(sp)
     bfe:	dc22                	sw	s0,56(sp)
     c00:	da26                	sw	s1,52(sp)
     c02:	d84a                	sw	s2,48(sp)
     c04:	d452                	sw	s4,40(sp)
     c06:	d05a                	sw	s6,32(sp)
     c08:	89aa                	mv	s3,a0
     c0a:	8aba                	mv	s5,a4
d:\CH573FEVT\CH573F_TFT\obj/../src/TFTc/TFT_CAD.c:295
	int16_t decisionParam = 3 - (r << 1); // 濮崇: 3 - 2*r
	TFT_Point circlePoints[8];			  // ㄤ瀛ㄥ圭О圭扮

	// 缁跺濮涓 (0, r), (0, -r), (r, 0), (-r, 0)
	// 杩浜瑰ㄥ惊涓涓浼琚缁讹瑕澶
	if (r > 0)
     c0c:	cef1                	beqz	a3,ce8 <TFT_Draw_Circle+0xf2>
d:\CH573FEVT\CH573F_TFT\obj/../src/TFTc/TFT_CAD.c:290
	int16_t decisionParam = 3 - (r << 1); // 濮崇: 3 - 2*r
     c0e:	01069493          	slli	s1,a3,0x10
     c12:	80c1                	srli	s1,s1,0x10
     c14:	8932                	mv	s2,a2
d:\CH573FEVT\CH573F_TFT\obj/../src/TFTc/TFT_CAD.c:297
	{
		TFT_Draw_Point(htft, x0, y0 + r, color);
     c16:	9626                	add	a2,a2,s1
     c18:	0642                	slli	a2,a2,0x10
d:\CH573FEVT\CH573F_TFT\obj/../src/TFTc/TFT_CAD.c:290
	int16_t decisionParam = 3 - (r << 1); // 濮崇: 3 - 2*r
     c1a:	00149793          	slli	a5,s1,0x1
d:\CH573FEVT\CH573F_TFT\obj/../src/TFTc/TFT_CAD.c:289
	int16_t plotY = r;					  // 稿逛蹇 y 
     c1e:	01069b13          	slli	s6,a3,0x10
d:\CH573FEVT\CH573F_TFT\obj/../src/TFTc/TFT_CAD.c:297
		TFT_Draw_Point(htft, x0, y0 + r, color);
     c22:	8241                	srli	a2,a2,0x10
     c24:	86ba                	mv	a3,a4
d:\CH573FEVT\CH573F_TFT\obj/../src/TFTc/TFT_CAD.c:290
	int16_t decisionParam = 3 - (r << 1); // 濮崇: 3 - 2*r
     c26:	440d                	li	s0,3
     c28:	8c1d                	sub	s0,s0,a5
d:\CH573FEVT\CH573F_TFT\obj/../src/TFTc/TFT_CAD.c:297
		TFT_Draw_Point(htft, x0, y0 + r, color);
     c2a:	8a2e                	mv	s4,a1
     c2c:	3135                	jal	858 <TFT_Draw_Point>
d:\CH573FEVT\CH573F_TFT\obj/../src/TFTc/TFT_CAD.c:298
		TFT_Draw_Point(htft, x0, y0 - r, color);
     c2e:	40990633          	sub	a2,s2,s1
     c32:	0642                	slli	a2,a2,0x10
     c34:	86d6                	mv	a3,s5
     c36:	8241                	srli	a2,a2,0x10
     c38:	85d2                	mv	a1,s4
     c3a:	854e                	mv	a0,s3
     c3c:	3931                	jal	858 <TFT_Draw_Point>
d:\CH573FEVT\CH573F_TFT\obj/../src/TFTc/TFT_CAD.c:299
		TFT_Draw_Point(htft, x0 + r, y0, color);
     c3e:	014485b3          	add	a1,s1,s4
     c42:	05c2                	slli	a1,a1,0x10
     c44:	86d6                	mv	a3,s5
     c46:	864a                	mv	a2,s2
     c48:	81c1                	srli	a1,a1,0x10
     c4a:	854e                	mv	a0,s3
     c4c:	3131                	jal	858 <TFT_Draw_Point>
d:\CH573FEVT\CH573F_TFT\obj/../src/TFTc/TFT_CAD.c:300
		TFT_Draw_Point(htft, x0 - r, y0, color);
     c4e:	409a05b3          	sub	a1,s4,s1
     c52:	05c2                	slli	a1,a1,0x10
     c54:	86d6                	mv	a3,s5
     c56:	864a                	mv	a2,s2
     c58:	81c1                	srli	a1,a1,0x10
     c5a:	854e                	mv	a0,s3
     c5c:	3ef5                	jal	858 <TFT_Draw_Point>
d:\CH573FEVT\CH573F_TFT\obj/../src/TFTc/TFT_CAD.c:301
		TFT_Flush_Buffer(htft, 1); // 锋板濮
     c5e:	4585                	li	a1,1
     c60:	854e                	mv	a0,s3
d:\CH573FEVT\CH573F_TFT\obj/../src/TFTc/TFT_CAD.c:289
	int16_t plotY = r;					  // 稿逛蹇 y 
     c62:	410b5b13          	srai	s6,s6,0x10
d:\CH573FEVT\CH573F_TFT\obj/../src/TFTc/TFT_CAD.c:301
		TFT_Flush_Buffer(htft, 1); // 锋板濮
     c66:	4e5000ef          	jal	ra,194a <TFT_Flush_Buffer>
d:\CH573FEVT\CH573F_TFT\obj/../src/TFTc/TFT_CAD.c:288
	int16_t plotX = 0;					  // 稿逛蹇 x 
     c6a:	4481                	li	s1,0
d:\CH573FEVT\CH573F_TFT\obj/../src/TFTc/TFT_CAD.c:312
		return;
	}

	while (plotX < plotY) // 浠璁＄涔涓寮 (绗浜璞￠浠 y 杞村 y=x)
	{
		plotX++; // x 澧 1
     c6c:	00148793          	addi	a5,s1,1
     c70:	07c2                	slli	a5,a5,0x10
     c72:	83c1                	srli	a5,a5,0x10
     c74:	01079493          	slli	s1,a5,0x10
     c78:	01041713          	slli	a4,s0,0x10
     c7c:	84c1                	srai	s1,s1,0x10
d:\CH573FEVT\CH573F_TFT\obj/../src/TFTc/TFT_CAD.c:315

		// 存板崇
		if (decisionParam < 0)
     c7e:	8341                	srli	a4,a4,0x10
     c80:	08045463          	bgez	s0,d08 <TFT_Draw_Circle+0x112>
d:\CH573FEVT\CH573F_TFT\obj/../src/TFTc/TFT_CAD.c:318
		{
			//  E  (x+1, y)
			decisionParam += (plotX << 2) + 6; // decisionParam += 4*plotX + 6
     c84:	00670413          	addi	s0,a4,6
     c88:	00279713          	slli	a4,a5,0x2
d:\CH573FEVT\CH573F_TFT\obj/../src/TFTc/TFT_CAD.c:324
		}
		else
		{
			//  SE  (x+1, y-1)
			plotY--;									  // y 灏 1
			decisionParam += ((plotX - plotY) << 2) + 10; // decisionParam += 4*(plotX - plotY) + 10
     c8c:	943a                	add	s0,s0,a4
     c8e:	010b1713          	slli	a4,s6,0x10
     c92:	8341                	srli	a4,a4,0x10
     c94:	014785b3          	add	a1,a5,s4
     c98:	00e90533          	add	a0,s2,a4
     c9c:	40fa0633          	sub	a2,s4,a5
     ca0:	40e906b3          	sub	a3,s2,a4
     ca4:	05c2                	slli	a1,a1,0x10
     ca6:	0542                	slli	a0,a0,0x10
     ca8:	0642                	slli	a2,a2,0x10
     caa:	06c2                	slli	a3,a3,0x10
     cac:	81c1                	srli	a1,a1,0x10
     cae:	8141                	srli	a0,a0,0x10
     cb0:	8241                	srli	a2,a2,0x10
     cb2:	82c1                	srli	a3,a3,0x10
     cb4:	0442                	slli	s0,s0,0x10
d:\CH573FEVT\CH573F_TFT\obj/../src/TFTc/TFT_CAD.c:330
		}

		// 濡 plotX == plotY锛璇存拌揪 y=x 绾匡缁 4 涓
		if (plotX == plotY)
		{
			circlePoints[0] = (TFT_Point){x0 + plotX, y0 + plotY};
     cb6:	00b11023          	sh	a1,0(sp)
     cba:	00a11123          	sh	a0,2(sp)
d:\CH573FEVT\CH573F_TFT\obj/../src/TFTc/TFT_CAD.c:331
			circlePoints[1] = (TFT_Point){x0 - plotX, y0 + plotY};
     cbe:	00c11223          	sh	a2,4(sp)
     cc2:	00a11323          	sh	a0,6(sp)
d:\CH573FEVT\CH573F_TFT\obj/../src/TFTc/TFT_CAD.c:332
			circlePoints[2] = (TFT_Point){x0 + plotX, y0 - plotY};
     cc6:	00b11423          	sh	a1,8(sp)
     cca:	00d11523          	sh	a3,10(sp)
d:\CH573FEVT\CH573F_TFT\obj/../src/TFTc/TFT_CAD.c:333
			circlePoints[3] = (TFT_Point){x0 - plotX, y0 - plotY};
     cce:	00c11623          	sh	a2,12(sp)
     cd2:	00d11723          	sh	a3,14(sp)
d:\CH573FEVT\CH573F_TFT\obj/../src/TFTc/TFT_CAD.c:324
			decisionParam += ((plotX - plotY) << 2) + 10; // decisionParam += 4*(plotX - plotY) + 10
     cd6:	8441                	srai	s0,s0,0x10
d:\CH573FEVT\CH573F_TFT\obj/../src/TFTc/TFT_CAD.c:328
		if (plotX == plotY)
     cd8:	049b1563          	bne	s6,s1,d22 <TFT_Draw_Circle+0x12c>
TFT_Draw_MultiPoint():
d:\CH573FEVT\CH573F_TFT\obj/../src/TFTc/TFT_CAD.c:44
	if (points == NULL || count == 0)
     cdc:	86d6                	mv	a3,s5
     cde:	4611                	li	a2,4
     ce0:	858a                	mv	a1,sp
     ce2:	854e                	mv	a0,s3
     ce4:	3e29                	jal	7fe <TFT_Draw_MultiPoint.part.0>
     ce6:	a039                	j	cf4 <TFT_Draw_Circle+0xfe>
TFT_Draw_Circle():
d:\CH573FEVT\CH573F_TFT\obj/../src/TFTc/TFT_CAD.c:305
		TFT_Draw_Point(htft, x0, y0, color); // 寰涓0锛讳涓
     ce8:	86ba                	mv	a3,a4
     cea:	36bd                	jal	858 <TFT_Draw_Point>
d:\CH573FEVT\CH573F_TFT\obj/../src/TFTc/TFT_CAD.c:306
		TFT_Flush_Buffer(htft, 1);
     cec:	4585                	li	a1,1
     cee:	854e                	mv	a0,s3
     cf0:	45b000ef          	jal	ra,194a <TFT_Flush_Buffer>
d:\CH573FEVT\CH573F_TFT\obj/../src/TFTc/TFT_CAD.c:352
			// 璋 MultiPoint 芥版归缁惰 8 涓
			TFT_Draw_MultiPoint(htft, circlePoints, 8, color);
		}
		// 娉ㄦ锛涓瑕ㄨ Flush锛涓 TFT_Draw_MultiPoint ㄤ Flush
	}
}
     cf4:	50f2                	lw	ra,60(sp)
     cf6:	5462                	lw	s0,56(sp)
     cf8:	54d2                	lw	s1,52(sp)
     cfa:	5942                	lw	s2,48(sp)
     cfc:	59b2                	lw	s3,44(sp)
     cfe:	5a22                	lw	s4,40(sp)
     d00:	5a92                	lw	s5,36(sp)
     d02:	5b02                	lw	s6,32(sp)
     d04:	6121                	addi	sp,sp,64
     d06:	8082                	ret
d:\CH573FEVT\CH573F_TFT\obj/../src/TFTc/TFT_CAD.c:323
			plotY--;									  // y 灏 1
     d08:	fffb0693          	addi	a3,s6,-1
     d0c:	06c2                	slli	a3,a3,0x10
     d0e:	82c1                	srli	a3,a3,0x10
     d10:	01069b13          	slli	s6,a3,0x10
d:\CH573FEVT\CH573F_TFT\obj/../src/TFTc/TFT_CAD.c:324
			decisionParam += ((plotX - plotY) << 2) + 10; // decisionParam += 4*(plotX - plotY) + 10
     d14:	40d78433          	sub	s0,a5,a3
d:\CH573FEVT\CH573F_TFT\obj/../src/TFTc/TFT_CAD.c:323
			plotY--;									  // y 灏 1
     d18:	410b5b13          	srai	s6,s6,0x10
d:\CH573FEVT\CH573F_TFT\obj/../src/TFTc/TFT_CAD.c:324
			decisionParam += ((plotX - plotY) << 2) + 10; // decisionParam += 4*(plotX - plotY) + 10
     d1c:	040a                	slli	s0,s0,0x2
     d1e:	0729                	addi	a4,a4,10
     d20:	b7b5                	j	c8c <TFT_Draw_Circle+0x96>
d:\CH573FEVT\CH573F_TFT\obj/../src/TFTc/TFT_CAD.c:343
			circlePoints[4] = (TFT_Point){x0 + plotY, y0 + plotX}; // 绗 3 璞￠
     d22:	00ea06b3          	add	a3,s4,a4
     d26:	01278633          	add	a2,a5,s2
     d2a:	06c2                	slli	a3,a3,0x10
     d2c:	0642                	slli	a2,a2,0x10
d:\CH573FEVT\CH573F_TFT\obj/../src/TFTc/TFT_CAD.c:344
			circlePoints[5] = (TFT_Point){x0 - plotY, y0 + plotX}; // 绗 6 璞￠
     d2e:	40ea0733          	sub	a4,s4,a4
     d32:	40f907b3          	sub	a5,s2,a5
d:\CH573FEVT\CH573F_TFT\obj/../src/TFTc/TFT_CAD.c:343
			circlePoints[4] = (TFT_Point){x0 + plotY, y0 + plotX}; // 绗 3 璞￠
     d36:	82c1                	srli	a3,a3,0x10
     d38:	8241                	srli	a2,a2,0x10
d:\CH573FEVT\CH573F_TFT\obj/../src/TFTc/TFT_CAD.c:344
			circlePoints[5] = (TFT_Point){x0 - plotY, y0 + plotX}; // 绗 6 璞￠
     d3a:	0742                	slli	a4,a4,0x10
     d3c:	07c2                	slli	a5,a5,0x10
     d3e:	8341                	srli	a4,a4,0x10
     d40:	83c1                	srli	a5,a5,0x10
d:\CH573FEVT\CH573F_TFT\obj/../src/TFTc/TFT_CAD.c:343
			circlePoints[4] = (TFT_Point){x0 + plotY, y0 + plotX}; // 绗 3 璞￠
     d42:	00d11823          	sh	a3,16(sp)
     d46:	00c11923          	sh	a2,18(sp)
d:\CH573FEVT\CH573F_TFT\obj/../src/TFTc/TFT_CAD.c:344
			circlePoints[5] = (TFT_Point){x0 - plotY, y0 + plotX}; // 绗 6 璞￠
     d4a:	00c11b23          	sh	a2,22(sp)
d:\CH573FEVT\CH573F_TFT\obj/../src/TFTc/TFT_CAD.c:345
			circlePoints[6] = (TFT_Point){x0 + plotY, y0 - plotX}; // 绗 2 璞￠
     d4e:	00d11c23          	sh	a3,24(sp)
TFT_Draw_MultiPoint():
d:\CH573FEVT\CH573F_TFT\obj/../src/TFTc/TFT_CAD.c:345
     d52:	4621                	li	a2,8
     d54:	86d6                	mv	a3,s5
     d56:	858a                	mv	a1,sp
     d58:	854e                	mv	a0,s3
TFT_Draw_Circle():
d:\CH573FEVT\CH573F_TFT\obj/../src/TFTc/TFT_CAD.c:344
			circlePoints[5] = (TFT_Point){x0 - plotY, y0 + plotX}; // 绗 6 璞￠
     d5a:	00e11a23          	sh	a4,20(sp)
d:\CH573FEVT\CH573F_TFT\obj/../src/TFTc/TFT_CAD.c:345
			circlePoints[6] = (TFT_Point){x0 + plotY, y0 - plotX}; // 绗 2 璞￠
     d5e:	00f11d23          	sh	a5,26(sp)
d:\CH573FEVT\CH573F_TFT\obj/../src/TFTc/TFT_CAD.c:346
			circlePoints[7] = (TFT_Point){x0 - plotY, y0 - plotX}; // 绗 7 璞￠
     d62:	00e11e23          	sh	a4,28(sp)
     d66:	00f11f23          	sh	a5,30(sp)
TFT_Draw_MultiPoint():
d:\CH573FEVT\CH573F_TFT\obj/../src/TFTc/TFT_CAD.c:44
	if (points == NULL || count == 0)
     d6a:	3c51                	jal	7fe <TFT_Draw_MultiPoint.part.0>
TFT_Draw_Circle():
d:\CH573FEVT\CH573F_TFT\obj/../src/TFTc/TFT_CAD.c:310
	while (plotX < plotY) // 浠璁＄涔涓寮 (绗浜璞￠浠 y 杞村 y=x)
     d6c:	f164c0e3          	blt	s1,s6,c6c <TFT_Draw_Circle+0x76>
     d70:	b751                	j	cf4 <TFT_Draw_Circle+0xfe>

00000d72 <TFT_Fill_Circle>:
TFT_Fill_Circle():
d:\CH573FEVT\CH573F_TFT\obj/../src/TFTc/TFT_CAD.c:364
 * @param  r       寰
 * @param  color   濉棰 (RGB565煎)
 * @retval 
 */
void TFT_Fill_Circle(TFT_HandleTypeDef *htft, uint16_t x0, uint16_t y0, uint8_t r, uint16_t color)
{
     d72:	7179                	addi	sp,sp,-48
     d74:	d04a                	sw	s2,32(sp)
     d76:	ce4e                	sw	s3,28(sp)
     d78:	d606                	sw	ra,44(sp)
     d7a:	d422                	sw	s0,40(sp)
     d7c:	d226                	sw	s1,36(sp)
     d7e:	cc52                	sw	s4,24(sp)
     d80:	ca56                	sw	s5,20(sp)
     d82:	c85a                	sw	s6,16(sp)
     d84:	c65e                	sw	s7,12(sp)
     d86:	c462                	sw	s8,8(sp)
     d88:	c266                	sw	s9,4(sp)
     d8a:	892a                	mv	s2,a0
     d8c:	89ba                	mv	s3,a4
d:\CH573FEVT\CH573F_TFT\obj/../src/TFTc/TFT_CAD.c:365
	if (r == 0)
     d8e:	e29d                	bnez	a3,db4 <TFT_Fill_Circle+0x42>
d:\CH573FEVT\CH573F_TFT\obj/../src/TFTc/TFT_CAD.c:368
	{
		// 澶寰涓 0 碉缁朵涓
		TFT_Draw_Point(htft, x0, y0, color);
     d90:	86ba                	mv	a3,a4
     d92:	34d9                	jal	858 <TFT_Draw_Point>
d:\CH573FEVT\CH573F_TFT\obj/../src/TFTc/TFT_CAD.c:412
		// : x0 - y  x0 + y (瀹藉害 2*y + 1)
		TFT_Draw_Fast_HLine(htft, x0 - plotY, y0 + plotX, 2 * plotY + 1, color);
		TFT_Draw_Fast_HLine(htft, x0 - plotY, y0 - plotX, 2 * plotY + 1, color);
	}
	// 娉ㄦ: Fast_HLine ㄤ Flush锛杩涓瑕棰澶 Flush
}
     d94:	5422                	lw	s0,40(sp)
     d96:	50b2                	lw	ra,44(sp)
     d98:	5492                	lw	s1,36(sp)
     d9a:	49f2                	lw	s3,28(sp)
     d9c:	4a62                	lw	s4,24(sp)
     d9e:	4ad2                	lw	s5,20(sp)
     da0:	4b42                	lw	s6,16(sp)
     da2:	4bb2                	lw	s7,12(sp)
     da4:	4c22                	lw	s8,8(sp)
     da6:	4c92                	lw	s9,4(sp)
d:\CH573FEVT\CH573F_TFT\obj/../src/TFTc/TFT_CAD.c:369
		TFT_Flush_Buffer(htft, 1); // 锋板涓
     da8:	854a                	mv	a0,s2
d:\CH573FEVT\CH573F_TFT\obj/../src/TFTc/TFT_CAD.c:412
}
     daa:	5902                	lw	s2,32(sp)
d:\CH573FEVT\CH573F_TFT\obj/../src/TFTc/TFT_CAD.c:369
		TFT_Flush_Buffer(htft, 1); // 锋板涓
     dac:	4585                	li	a1,1
d:\CH573FEVT\CH573F_TFT\obj/../src/TFTc/TFT_CAD.c:412
}
     dae:	6145                	addi	sp,sp,48
d:\CH573FEVT\CH573F_TFT\obj/../src/TFTc/TFT_CAD.c:369
		TFT_Flush_Buffer(htft, 1); // 锋板涓
     db0:	39b0006f          	j	194a <TFT_Flush_Buffer>
     db4:	8aae                	mv	s5,a1
d:\CH573FEVT\CH573F_TFT\obj/../src/TFTc/TFT_CAD.c:376
	int16_t decisionParam = 3 - (r << 1); // 濮崇: 3 - 2*r
     db6:	01069593          	slli	a1,a3,0x10
     dba:	81c1                	srli	a1,a1,0x10
d:\CH573FEVT\CH573F_TFT\obj/../src/TFTc/TFT_CAD.c:375
	int16_t plotY = r;					  // 稿逛蹇 y 
     dbc:	01069c93          	slli	s9,a3,0x10
d:\CH573FEVT\CH573F_TFT\obj/../src/TFTc/TFT_CAD.c:376
	int16_t decisionParam = 3 - (r << 1); // 濮崇: 3 - 2*r
     dc0:	00159693          	slli	a3,a1,0x1
d:\CH573FEVT\CH573F_TFT\obj/../src/TFTc/TFT_CAD.c:379
	TFT_Draw_Fast_HLine(htft, x0 - r, y0, 2 * r + 1, color);
     dc4:	40ba85b3          	sub	a1,s5,a1
d:\CH573FEVT\CH573F_TFT\obj/../src/TFTc/TFT_CAD.c:376
	int16_t decisionParam = 3 - (r << 1); // 濮崇: 3 - 2*r
     dc8:	440d                	li	s0,3
d:\CH573FEVT\CH573F_TFT\obj/../src/TFTc/TFT_CAD.c:379
	TFT_Draw_Fast_HLine(htft, x0 - r, y0, 2 * r + 1, color);
     dca:	05c2                	slli	a1,a1,0x10
d:\CH573FEVT\CH573F_TFT\obj/../src/TFTc/TFT_CAD.c:376
	int16_t decisionParam = 3 - (r << 1); // 濮崇: 3 - 2*r
     dcc:	8c15                	sub	s0,s0,a3
d:\CH573FEVT\CH573F_TFT\obj/../src/TFTc/TFT_CAD.c:379
	TFT_Draw_Fast_HLine(htft, x0 - r, y0, 2 * r + 1, color);
     dce:	81c1                	srli	a1,a1,0x10
     dd0:	0685                	addi	a3,a3,1
     dd2:	8a32                	mv	s4,a2
d:\CH573FEVT\CH573F_TFT\obj/../src/TFTc/TFT_CAD.c:375
	int16_t plotY = r;					  // 稿逛蹇 y 
     dd4:	410cdc93          	srai	s9,s9,0x10
d:\CH573FEVT\CH573F_TFT\obj/../src/TFTc/TFT_CAD.c:379
	TFT_Draw_Fast_HLine(htft, x0 - r, y0, 2 * r + 1, color);
     dd8:	3e11                	jal	8ec <TFT_Draw_Fast_HLine>
d:\CH573FEVT\CH573F_TFT\obj/../src/TFTc/TFT_CAD.c:374
	int16_t plotX = 0;					  // 稿逛蹇 x 
     dda:	4c01                	li	s8,0
d:\CH573FEVT\CH573F_TFT\obj/../src/TFTc/TFT_CAD.c:384
		plotX++; // x 澧 1
     ddc:	001c0b13          	addi	s6,s8,1 # 1001 <TFT_Draw_Ellipse+0x147>
     de0:	0b42                	slli	s6,s6,0x10
     de2:	010b5b13          	srli	s6,s6,0x10
     de6:	010b1c13          	slli	s8,s6,0x10
     dea:	01041b93          	slli	s7,s0,0x10
     dee:	410c5c13          	srai	s8,s8,0x10
d:\CH573FEVT\CH573F_TFT\obj/../src/TFTc/TFT_CAD.c:387
		if (decisionParam < 0)
     df2:	010bdb93          	srli	s7,s7,0x10
     df6:	06045763          	bgez	s0,e64 <TFT_Fill_Circle+0xf2>
d:\CH573FEVT\CH573F_TFT\obj/../src/TFTc/TFT_CAD.c:390
			decisionParam += (plotX << 2) + 6; // decisionParam += 4*plotX + 6
     dfa:	006b8413          	addi	s0,s7,6
     dfe:	002b1b93          	slli	s7,s6,0x2
d:\CH573FEVT\CH573F_TFT\obj/../src/TFTc/TFT_CAD.c:402
			decisionParam += ((plotX - plotY) << 2) + 10; // decisionParam += 4*(plotX - plotY) + 10
     e02:	945e                	add	s0,s0,s7
d:\CH573FEVT\CH573F_TFT\obj/../src/TFTc/TFT_CAD.c:408
		TFT_Draw_Fast_HLine(htft, x0 - plotY, y0 + plotX, 2 * plotY + 1, color);
     e04:	010c9b93          	slli	s7,s9,0x10
     e08:	010bdb93          	srli	s7,s7,0x10
     e0c:	417a84b3          	sub	s1,s5,s7
     e10:	0b86                	slli	s7,s7,0x1
     e12:	0b85                	addi	s7,s7,1
     e14:	04c2                	slli	s1,s1,0x10
     e16:	0bc2                	slli	s7,s7,0x10
     e18:	014b0633          	add	a2,s6,s4
     e1c:	80c1                	srli	s1,s1,0x10
     e1e:	010bdb93          	srli	s7,s7,0x10
     e22:	0642                	slli	a2,a2,0x10
     e24:	874e                	mv	a4,s3
     e26:	86de                	mv	a3,s7
     e28:	8241                	srli	a2,a2,0x10
     e2a:	85a6                	mv	a1,s1
     e2c:	854a                	mv	a0,s2
     e2e:	3c7d                	jal	8ec <TFT_Draw_Fast_HLine>
d:\CH573FEVT\CH573F_TFT\obj/../src/TFTc/TFT_CAD.c:409
		TFT_Draw_Fast_HLine(htft, x0 - plotY, y0 - plotX, 2 * plotY + 1, color);
     e30:	416a0633          	sub	a2,s4,s6
     e34:	0642                	slli	a2,a2,0x10
d:\CH573FEVT\CH573F_TFT\obj/../src/TFTc/TFT_CAD.c:402
			decisionParam += ((plotX - plotY) << 2) + 10; // decisionParam += 4*(plotX - plotY) + 10
     e36:	0442                	slli	s0,s0,0x10
d:\CH573FEVT\CH573F_TFT\obj/../src/TFTc/TFT_CAD.c:409
		TFT_Draw_Fast_HLine(htft, x0 - plotY, y0 - plotX, 2 * plotY + 1, color);
     e38:	874e                	mv	a4,s3
     e3a:	86de                	mv	a3,s7
     e3c:	8241                	srli	a2,a2,0x10
     e3e:	85a6                	mv	a1,s1
     e40:	854a                	mv	a0,s2
d:\CH573FEVT\CH573F_TFT\obj/../src/TFTc/TFT_CAD.c:402
			decisionParam += ((plotX - plotY) << 2) + 10; // decisionParam += 4*(plotX - plotY) + 10
     e42:	8441                	srai	s0,s0,0x10
d:\CH573FEVT\CH573F_TFT\obj/../src/TFTc/TFT_CAD.c:409
		TFT_Draw_Fast_HLine(htft, x0 - plotY, y0 - plotX, 2 * plotY + 1, color);
     e44:	3465                	jal	8ec <TFT_Draw_Fast_HLine>
d:\CH573FEVT\CH573F_TFT\obj/../src/TFTc/TFT_CAD.c:382
	while (plotX < plotY)
     e46:	f99c4be3          	blt	s8,s9,ddc <TFT_Fill_Circle+0x6a>
d:\CH573FEVT\CH573F_TFT\obj/../src/TFTc/TFT_CAD.c:412
}
     e4a:	50b2                	lw	ra,44(sp)
     e4c:	5422                	lw	s0,40(sp)
     e4e:	5492                	lw	s1,36(sp)
     e50:	5902                	lw	s2,32(sp)
     e52:	49f2                	lw	s3,28(sp)
     e54:	4a62                	lw	s4,24(sp)
     e56:	4ad2                	lw	s5,20(sp)
     e58:	4b42                	lw	s6,16(sp)
     e5a:	4bb2                	lw	s7,12(sp)
     e5c:	4c22                	lw	s8,8(sp)
     e5e:	4c92                	lw	s9,4(sp)
     e60:	6145                	addi	sp,sp,48
     e62:	8082                	ret
     e64:	010c9493          	slli	s1,s9,0x10
d:\CH573FEVT\CH573F_TFT\obj/../src/TFTc/TFT_CAD.c:399
			TFT_Draw_Fast_HLine(htft, x0 - plotX, y0 + plotY, 2 * plotX + 1, color);
     e68:	001b1413          	slli	s0,s6,0x1
     e6c:	80c1                	srli	s1,s1,0x10
     e6e:	416a8cb3          	sub	s9,s5,s6
     e72:	0405                	addi	s0,s0,1
     e74:	009a0633          	add	a2,s4,s1
     e78:	0cc2                	slli	s9,s9,0x10
     e7a:	0442                	slli	s0,s0,0x10
     e7c:	010cdc93          	srli	s9,s9,0x10
     e80:	8041                	srli	s0,s0,0x10
     e82:	0642                	slli	a2,a2,0x10
     e84:	86a2                	mv	a3,s0
     e86:	85e6                	mv	a1,s9
     e88:	874e                	mv	a4,s3
     e8a:	8241                	srli	a2,a2,0x10
     e8c:	854a                	mv	a0,s2
     e8e:	3cb9                	jal	8ec <TFT_Draw_Fast_HLine>
d:\CH573FEVT\CH573F_TFT\obj/../src/TFTc/TFT_CAD.c:400
			TFT_Draw_Fast_HLine(htft, x0 - plotX, y0 - plotY, 2 * plotX + 1, color);
     e90:	409a0633          	sub	a2,s4,s1
d:\CH573FEVT\CH573F_TFT\obj/../src/TFTc/TFT_CAD.c:401
			plotY--;									  // y 灏 1
     e94:	14fd                	addi	s1,s1,-1
     e96:	04c2                	slli	s1,s1,0x10
     e98:	80c1                	srli	s1,s1,0x10
d:\CH573FEVT\CH573F_TFT\obj/../src/TFTc/TFT_CAD.c:400
			TFT_Draw_Fast_HLine(htft, x0 - plotX, y0 - plotY, 2 * plotX + 1, color);
     e9a:	0642                	slli	a2,a2,0x10
     e9c:	86a2                	mv	a3,s0
     e9e:	85e6                	mv	a1,s9
     ea0:	874e                	mv	a4,s3
     ea2:	8241                	srli	a2,a2,0x10
     ea4:	854a                	mv	a0,s2
d:\CH573FEVT\CH573F_TFT\obj/../src/TFTc/TFT_CAD.c:401
			plotY--;									  // y 灏 1
     ea6:	01049c93          	slli	s9,s1,0x10
d:\CH573FEVT\CH573F_TFT\obj/../src/TFTc/TFT_CAD.c:402
			decisionParam += ((plotX - plotY) << 2) + 10; // decisionParam += 4*(plotX - plotY) + 10
     eaa:	409b0433          	sub	s0,s6,s1
d:\CH573FEVT\CH573F_TFT\obj/../src/TFTc/TFT_CAD.c:400
			TFT_Draw_Fast_HLine(htft, x0 - plotX, y0 - plotY, 2 * plotX + 1, color);
     eae:	3c3d                	jal	8ec <TFT_Draw_Fast_HLine>
d:\CH573FEVT\CH573F_TFT\obj/../src/TFTc/TFT_CAD.c:401
			plotY--;									  // y 灏 1
     eb0:	410cdc93          	srai	s9,s9,0x10
d:\CH573FEVT\CH573F_TFT\obj/../src/TFTc/TFT_CAD.c:402
			decisionParam += ((plotX - plotY) << 2) + 10; // decisionParam += 4*(plotX - plotY) + 10
     eb4:	040a                	slli	s0,s0,0x2
     eb6:	0ba9                	addi	s7,s7,10
     eb8:	b7a9                	j	e02 <TFT_Fill_Circle+0x90>

00000eba <TFT_Draw_Ellipse>:
TFT_Draw_Ellipse():
d:\CH573FEVT\CH573F_TFT\obj/../src/TFTc/TFT_CAD.c:799
 * @param  radiusY 妞Y杞村寰
 * @param  color   妞棰 (RGB565煎)
 * @retval 
 */
void TFT_Draw_Ellipse(TFT_HandleTypeDef *htft, uint16_t centerX, uint16_t centerY, uint16_t radiusX, uint16_t radiusY, uint16_t color)
{
     eba:	711d                	addi	sp,sp,-96
     ebc:	d86a                	sw	s10,48(sp)
d:\CH573FEVT\CH573F_TFT\obj/../src/TFTc/TFT_CAD.c:803
	int32_t x = 0;
	int32_t y = radiusY;

	int32_t radiusX2 = radiusX * radiusX;
     ebe:	02d68d33          	mul	s10,a3,a3
d:\CH573FEVT\CH573F_TFT\obj/../src/TFTc/TFT_CAD.c:799
{
     ec2:	caa6                	sw	s1,84(sp)
     ec4:	dc62                	sw	s8,56(sp)
     ec6:	de5e                	sw	s7,60(sp)
     ec8:	8bbe                	mv	s7,a5
     eca:	cca2                	sw	s0,88(sp)
     ecc:	c8ca                	sw	s2,80(sp)
     ece:	c6ce                	sw	s3,76(sp)
     ed0:	c4d2                	sw	s4,72(sp)
     ed2:	c2d6                	sw	s5,68(sp)
d:\CH573FEVT\CH573F_TFT\obj/../src/TFTc/TFT_CAD.c:804
	int32_t radiusY2 = radiusY * radiusY;
     ed4:	02e70c33          	mul	s8,a4,a4
d:\CH573FEVT\CH573F_TFT\obj/../src/TFTc/TFT_CAD.c:805
	int32_t error = radiusY2 - (radiusX2 * radiusY) + (radiusX2 / 4);
     ed8:	402d5793          	srai	a5,s10,0x2
d:\CH573FEVT\CH573F_TFT\obj/../src/TFTc/TFT_CAD.c:799
{
     edc:	c0da                	sw	s6,64(sp)
     ede:	ce86                	sw	ra,92(sp)
     ee0:	da66                	sw	s9,52(sp)
     ee2:	d66e                	sw	s11,44(sp)
     ee4:	8a2a                	mv	s4,a0
     ee6:	8aae                	mv	s5,a1
     ee8:	8b32                	mv	s6,a2
d:\CH573FEVT\CH573F_TFT\obj/../src/TFTc/TFT_CAD.c:801
	int32_t y = radiusY;
     eea:	893a                	mv	s2,a4
d:\CH573FEVT\CH573F_TFT\obj/../src/TFTc/TFT_CAD.c:805
	int32_t error = radiusY2 - (radiusX2 * radiusY) + (radiusX2 / 4);
     eec:	03a704b3          	mul	s1,a4,s10
d:\CH573FEVT\CH573F_TFT\obj/../src/TFTc/TFT_CAD.c:812
	TFT_Point ellipsePoints[4]; // ㄤ归缁剁圭扮

	// 纭淇缂插烘绌虹
	TFT_Reset_Buffer(htft);

	while (radiusX2 * y > radiusY2 * x)
     ef0:	4401                	li	s0,0
d:\CH573FEVT\CH573F_TFT\obj/../src/TFTc/TFT_CAD.c:800
	int32_t x = 0;
     ef2:	4981                	li	s3,0
d:\CH573FEVT\CH573F_TFT\obj/../src/TFTc/TFT_CAD.c:805
	int32_t error = radiusY2 - (radiusX2 * radiusY) + (radiusX2 / 4);
     ef4:	409c04b3          	sub	s1,s8,s1
     ef8:	94be                	add	s1,s1,a5
d:\CH573FEVT\CH573F_TFT\obj/../src/TFTc/TFT_CAD.c:810
	TFT_Reset_Buffer(htft);
     efa:	2d3000ef          	jal	ra,19cc <TFT_Reset_Buffer>
d:\CH573FEVT\CH573F_TFT\obj/../src/TFTc/TFT_CAD.c:812
	while (radiusX2 * y > radiusY2 * x)
     efe:	480d                	li	a6,3
     f00:	030c0833          	mul	a6,s8,a6
     f04:	03a90cb3          	mul	s9,s2,s10
     f08:	05944a63          	blt	s0,s9,f5c <TFT_Draw_Ellipse+0xa2>
d:\CH573FEVT\CH573F_TFT\obj/../src/TFTc/TFT_CAD.c:837
		}
		x++;
		error += 2 * radiusY2 * x + radiusY2;
	}

	error = radiusY2 * x * x + radiusX2 * y * y - radiusX2 * radiusY2;
     f0c:	03340433          	mul	s0,s0,s3
     f10:	fff90493          	addi	s1,s2,-1
     f14:	001d1d93          	slli	s11,s10,0x1
     f18:	032c8cb3          	mul	s9,s9,s2
     f1c:	038d07b3          	mul	a5,s10,s8
     f20:	9466                	add	s0,s0,s9
     f22:	03a484b3          	mul	s1,s1,s10
     f26:	8c1d                	sub	s0,s0,a5
d:\CH573FEVT\CH573F_TFT\obj/../src/TFTc/TFT_CAD.c:839

	while (y >= 0)
     f28:	57f9                	li	a5,-2
     f2a:	02f484b3          	mul	s1,s1,a5
     f2e:	94ea                	add	s1,s1,s10
     f30:	02010d13          	addi	s10,sp,32
     f34:	0a095f63          	bgez	s2,ff2 <TFT_Draw_Ellipse+0x138>
d:\CH573FEVT\CH573F_TFT\obj/../src/TFTc/TFT_CAD.c:865
		y--;
		error += -2 * radiusX2 * y + radiusX2;
	}

	TFT_Flush_Buffer(htft, 1); // 纭淇归借板骞
}
     f38:	4466                	lw	s0,88(sp)
     f3a:	40f6                	lw	ra,92(sp)
     f3c:	44d6                	lw	s1,84(sp)
     f3e:	4946                	lw	s2,80(sp)
     f40:	49b6                	lw	s3,76(sp)
     f42:	4a96                	lw	s5,68(sp)
     f44:	4b06                	lw	s6,64(sp)
     f46:	5bf2                	lw	s7,60(sp)
     f48:	5c62                	lw	s8,56(sp)
     f4a:	5cd2                	lw	s9,52(sp)
     f4c:	5d42                	lw	s10,48(sp)
     f4e:	5db2                	lw	s11,44(sp)
d:\CH573FEVT\CH573F_TFT\obj/../src/TFTc/TFT_CAD.c:864
	TFT_Flush_Buffer(htft, 1); // 纭淇归借板骞
     f50:	8552                	mv	a0,s4
d:\CH573FEVT\CH573F_TFT\obj/../src/TFTc/TFT_CAD.c:865
}
     f52:	4a26                	lw	s4,72(sp)
d:\CH573FEVT\CH573F_TFT\obj/../src/TFTc/TFT_CAD.c:864
	TFT_Flush_Buffer(htft, 1); // 纭淇归借板骞
     f54:	4585                	li	a1,1
d:\CH573FEVT\CH573F_TFT\obj/../src/TFTc/TFT_CAD.c:865
}
     f56:	6125                	addi	sp,sp,96
d:\CH573FEVT\CH573F_TFT\obj/../src/TFTc/TFT_CAD.c:864
	TFT_Flush_Buffer(htft, 1); // 纭淇归借板骞
     f58:	1f30006f          	j	194a <TFT_Flush_Buffer>
d:\CH573FEVT\CH573F_TFT\obj/../src/TFTc/TFT_CAD.c:815
		ellipsePoints[0] = (TFT_Point){centerX + x, centerY + y};
     f5c:	01099713          	slli	a4,s3,0x10
     f60:	01091793          	slli	a5,s2,0x10
     f64:	8341                	srli	a4,a4,0x10
     f66:	83c1                	srli	a5,a5,0x10
     f68:	00ea86b3          	add	a3,s5,a4
     f6c:	01678633          	add	a2,a5,s6
     f70:	40ea8733          	sub	a4,s5,a4
d:\CH573FEVT\CH573F_TFT\obj/../src/TFTc/TFT_CAD.c:817
		ellipsePoints[2] = (TFT_Point){centerX + x, centerY - y};
     f74:	40fb07b3          	sub	a5,s6,a5
     f78:	06c2                	slli	a3,a3,0x10
d:\CH573FEVT\CH573F_TFT\obj/../src/TFTc/TFT_CAD.c:815
		ellipsePoints[0] = (TFT_Point){centerX + x, centerY + y};
     f7a:	0642                	slli	a2,a2,0x10
     f7c:	0742                	slli	a4,a4,0x10
d:\CH573FEVT\CH573F_TFT\obj/../src/TFTc/TFT_CAD.c:817
		ellipsePoints[2] = (TFT_Point){centerX + x, centerY - y};
     f7e:	07c2                	slli	a5,a5,0x10
     f80:	82c1                	srli	a3,a3,0x10
d:\CH573FEVT\CH573F_TFT\obj/../src/TFTc/TFT_CAD.c:815
		ellipsePoints[0] = (TFT_Point){centerX + x, centerY + y};
     f82:	8241                	srli	a2,a2,0x10
     f84:	8341                	srli	a4,a4,0x10
d:\CH573FEVT\CH573F_TFT\obj/../src/TFTc/TFT_CAD.c:817
		ellipsePoints[2] = (TFT_Point){centerX + x, centerY - y};
     f86:	83c1                	srli	a5,a5,0x10
d:\CH573FEVT\CH573F_TFT\obj/../src/TFTc/TFT_CAD.c:815
		ellipsePoints[0] = (TFT_Point){centerX + x, centerY + y};
     f88:	00d11823          	sh	a3,16(sp)
     f8c:	00c11923          	sh	a2,18(sp)
d:\CH573FEVT\CH573F_TFT\obj/../src/TFTc/TFT_CAD.c:816
		ellipsePoints[1] = (TFT_Point){centerX - x, centerY + y};
     f90:	00e11a23          	sh	a4,20(sp)
     f94:	00c11b23          	sh	a2,22(sp)
d:\CH573FEVT\CH573F_TFT\obj/../src/TFTc/TFT_CAD.c:817
		ellipsePoints[2] = (TFT_Point){centerX + x, centerY - y};
     f98:	00d11c23          	sh	a3,24(sp)
     f9c:	00f11d23          	sh	a5,26(sp)
d:\CH573FEVT\CH573F_TFT\obj/../src/TFTc/TFT_CAD.c:818
		ellipsePoints[3] = (TFT_Point){centerX - x, centerY - y};
     fa0:	00e11e23          	sh	a4,28(sp)
     fa4:	00f11f23          	sh	a5,30(sp)
d:\CH573FEVT\CH573F_TFT\obj/../src/TFTc/TFT_CAD.c:821
		for (uint8_t i = 0; i < 4; i++)
     fa8:	01010d93          	addi	s11,sp,16
d:\CH573FEVT\CH573F_TFT\obj/../src/TFTc/TFT_CAD.c:823 (discriminator 3)
			TFT_Set_Address(htft, ellipsePoints[i].x, ellipsePoints[i].y,
     fac:	000dd683          	lhu	a3,0(s11)
     fb0:	002dd703          	lhu	a4,2(s11)
     fb4:	8552                	mv	a0,s4
     fb6:	85b6                	mv	a1,a3
     fb8:	863a                	mv	a2,a4
     fba:	c642                	sw	a6,12(sp)
     fbc:	323000ef          	jal	ra,1ade <TFT_Set_Address>
d:\CH573FEVT\CH573F_TFT\obj/../src/TFTc/TFT_CAD.c:825 (discriminator 3)
			TFT_Buffer_Write16(htft, color);
     fc0:	85de                	mv	a1,s7
     fc2:	8552                	mv	a0,s4
     fc4:	1ad000ef          	jal	ra,1970 <TFT_Buffer_Write16>
     fc8:	0d91                	addi	s11,s11,4
d:\CH573FEVT\CH573F_TFT\obj/../src/TFTc/TFT_CAD.c:821 (discriminator 3)
		for (uint8_t i = 0; i < 4; i++)
     fca:	02010893          	addi	a7,sp,32
     fce:	4832                	lw	a6,12(sp)
     fd0:	fd1d9ee3          	bne	s11,a7,fac <TFT_Draw_Ellipse+0xf2>
d:\CH573FEVT\CH573F_TFT\obj/../src/TFTc/TFT_CAD.c:828
		if (error >= 0)
     fd4:	0004c863          	bltz	s1,fe4 <TFT_Draw_Ellipse+0x12a>
d:\CH573FEVT\CH573F_TFT\obj/../src/TFTc/TFT_CAD.c:831
			error -= 2 * radiusX2 * y;
     fd8:	41ac8cb3          	sub	s9,s9,s10
     fdc:	0c86                	slli	s9,s9,0x1
d:\CH573FEVT\CH573F_TFT\obj/../src/TFTc/TFT_CAD.c:830
			y--;
     fde:	197d                	addi	s2,s2,-1
d:\CH573FEVT\CH573F_TFT\obj/../src/TFTc/TFT_CAD.c:831
			error -= 2 * radiusX2 * y;
     fe0:	419484b3          	sub	s1,s1,s9
d:\CH573FEVT\CH573F_TFT\obj/../src/TFTc/TFT_CAD.c:834
		error += 2 * radiusY2 * x + radiusY2;
     fe4:	00141793          	slli	a5,s0,0x1
     fe8:	97c2                	add	a5,a5,a6
d:\CH573FEVT\CH573F_TFT\obj/../src/TFTc/TFT_CAD.c:833
		x++;
     fea:	0985                	addi	s3,s3,1
d:\CH573FEVT\CH573F_TFT\obj/../src/TFTc/TFT_CAD.c:834
		error += 2 * radiusY2 * x + radiusY2;
     fec:	94be                	add	s1,s1,a5
     fee:	9462                	add	s0,s0,s8
     ff0:	bf11                	j	f04 <TFT_Draw_Ellipse+0x4a>
d:\CH573FEVT\CH573F_TFT\obj/../src/TFTc/TFT_CAD.c:842
		ellipsePoints[0] = (TFT_Point){centerX + x, centerY + y};
     ff2:	01099713          	slli	a4,s3,0x10
     ff6:	01091793          	slli	a5,s2,0x10
     ffa:	8341                	srli	a4,a4,0x10
     ffc:	83c1                	srli	a5,a5,0x10
     ffe:	015706b3          	add	a3,a4,s5
    1002:	00fb0633          	add	a2,s6,a5
d:\CH573FEVT\CH573F_TFT\obj/../src/TFTc/TFT_CAD.c:843
		ellipsePoints[1] = (TFT_Point){centerX - x, centerY + y};
    1006:	40ea8733          	sub	a4,s5,a4
    100a:	40fb07b3          	sub	a5,s6,a5
d:\CH573FEVT\CH573F_TFT\obj/../src/TFTc/TFT_CAD.c:842
		ellipsePoints[0] = (TFT_Point){centerX + x, centerY + y};
    100e:	06c2                	slli	a3,a3,0x10
    1010:	0642                	slli	a2,a2,0x10
d:\CH573FEVT\CH573F_TFT\obj/../src/TFTc/TFT_CAD.c:843
		ellipsePoints[1] = (TFT_Point){centerX - x, centerY + y};
    1012:	0742                	slli	a4,a4,0x10
    1014:	07c2                	slli	a5,a5,0x10
d:\CH573FEVT\CH573F_TFT\obj/../src/TFTc/TFT_CAD.c:842
		ellipsePoints[0] = (TFT_Point){centerX + x, centerY + y};
    1016:	82c1                	srli	a3,a3,0x10
    1018:	8241                	srli	a2,a2,0x10
d:\CH573FEVT\CH573F_TFT\obj/../src/TFTc/TFT_CAD.c:843
		ellipsePoints[1] = (TFT_Point){centerX - x, centerY + y};
    101a:	8341                	srli	a4,a4,0x10
    101c:	83c1                	srli	a5,a5,0x10
d:\CH573FEVT\CH573F_TFT\obj/../src/TFTc/TFT_CAD.c:842
		ellipsePoints[0] = (TFT_Point){centerX + x, centerY + y};
    101e:	00d11823          	sh	a3,16(sp)
    1022:	00c11923          	sh	a2,18(sp)
d:\CH573FEVT\CH573F_TFT\obj/../src/TFTc/TFT_CAD.c:843
		ellipsePoints[1] = (TFT_Point){centerX - x, centerY + y};
    1026:	00e11a23          	sh	a4,20(sp)
    102a:	00c11b23          	sh	a2,22(sp)
d:\CH573FEVT\CH573F_TFT\obj/../src/TFTc/TFT_CAD.c:844
		ellipsePoints[2] = (TFT_Point){centerX + x, centerY - y};
    102e:	00d11c23          	sh	a3,24(sp)
    1032:	00f11d23          	sh	a5,26(sp)
d:\CH573FEVT\CH573F_TFT\obj/../src/TFTc/TFT_CAD.c:845
		ellipsePoints[3] = (TFT_Point){centerX - x, centerY - y};
    1036:	00e11e23          	sh	a4,28(sp)
    103a:	00f11f23          	sh	a5,30(sp)
d:\CH573FEVT\CH573F_TFT\obj/../src/TFTc/TFT_CAD.c:848
		for (uint8_t i = 0; i < 4; i++)
    103e:	01010c93          	addi	s9,sp,16
d:\CH573FEVT\CH573F_TFT\obj/../src/TFTc/TFT_CAD.c:850 (discriminator 3)
			TFT_Set_Address(htft, ellipsePoints[i].x, ellipsePoints[i].y,
    1042:	000cd683          	lhu	a3,0(s9)
    1046:	002cd703          	lhu	a4,2(s9)
    104a:	8552                	mv	a0,s4
    104c:	85b6                	mv	a1,a3
    104e:	863a                	mv	a2,a4
    1050:	28f000ef          	jal	ra,1ade <TFT_Set_Address>
d:\CH573FEVT\CH573F_TFT\obj/../src/TFTc/TFT_CAD.c:852 (discriminator 3)
			TFT_Buffer_Write16(htft, color);
    1054:	85de                	mv	a1,s7
    1056:	8552                	mv	a0,s4
    1058:	0c91                	addi	s9,s9,4
    105a:	117000ef          	jal	ra,1970 <TFT_Buffer_Write16>
d:\CH573FEVT\CH573F_TFT\obj/../src/TFTc/TFT_CAD.c:848 (discriminator 3)
		for (uint8_t i = 0; i < 4; i++)
    105e:	ffac92e3          	bne	s9,s10,1042 <TFT_Draw_Ellipse+0x188>
d:\CH573FEVT\CH573F_TFT\obj/../src/TFTc/TFT_CAD.c:855
		if (error <= 0)
    1062:	00804763          	bgtz	s0,1070 <TFT_Draw_Ellipse+0x1b6>
d:\CH573FEVT\CH573F_TFT\obj/../src/TFTc/TFT_CAD.c:857
			x++;
    1066:	0985                	addi	s3,s3,1
d:\CH573FEVT\CH573F_TFT\obj/../src/TFTc/TFT_CAD.c:858
			error += 2 * radiusY2 * x;
    1068:	033c07b3          	mul	a5,s8,s3
    106c:	0786                	slli	a5,a5,0x1
    106e:	943e                	add	s0,s0,a5
d:\CH573FEVT\CH573F_TFT\obj/../src/TFTc/TFT_CAD.c:861
		error += -2 * radiusX2 * y + radiusX2;
    1070:	9426                	add	s0,s0,s1
d:\CH573FEVT\CH573F_TFT\obj/../src/TFTc/TFT_CAD.c:860
		y--;
    1072:	197d                	addi	s2,s2,-1
d:\CH573FEVT\CH573F_TFT\obj/../src/TFTc/TFT_CAD.c:861
		error += -2 * radiusX2 * y + radiusX2;
    1074:	94ee                	add	s1,s1,s11
    1076:	bd7d                	j	f34 <TFT_Draw_Ellipse+0x7a>

00001078 <TFT_Fill_Ellipse>:
TFT_Fill_Ellipse():
d:\CH573FEVT\CH573F_TFT\obj/../src/TFTc/TFT_CAD.c:877
 * @param  radiusY 妞Y杞村寰
 * @param  color   濉棰 (RGB565煎)
 * @retval 
 */
void TFT_Fill_Ellipse(TFT_HandleTypeDef *htft, uint16_t centerX, uint16_t centerY, uint16_t radiusX, uint16_t radiusY, uint16_t color)
{
    1078:	715d                	addi	sp,sp,-80
    107a:	ce6e                	sw	s11,28(sp)
d:\CH573FEVT\CH573F_TFT\obj/../src/TFTc/TFT_CAD.c:880
	int32_t x = 0;
	int32_t y = radiusY;
	int32_t radiusX2 = radiusX * radiusX;
    107c:	02d68db3          	mul	s11,a3,a3
d:\CH573FEVT\CH573F_TFT\obj/../src/TFTc/TFT_CAD.c:877
{
    1080:	d06a                	sw	s10,32(sp)
    1082:	da56                	sw	s5,52(sp)
    1084:	8abe                	mv	s5,a5
    1086:	488d                	li	a7,3
    1088:	d65e                	sw	s7,44(sp)
d:\CH573FEVT\CH573F_TFT\obj/../src/TFTc/TFT_CAD.c:879
	int32_t y = radiusY;
    108a:	8bba                	mv	s7,a4
d:\CH573FEVT\CH573F_TFT\obj/../src/TFTc/TFT_CAD.c:877
{
    108c:	c0ca                	sw	s2,64(sp)
    108e:	de4e                	sw	s3,60(sp)
    1090:	dc52                	sw	s4,56(sp)
d:\CH573FEVT\CH573F_TFT\obj/../src/TFTc/TFT_CAD.c:881
	int32_t radiusY2 = radiusY * radiusY;
    1092:	02e70d33          	mul	s10,a4,a4
d:\CH573FEVT\CH573F_TFT\obj/../src/TFTc/TFT_CAD.c:877
{
    1096:	d85a                	sw	s6,48(sp)
    1098:	d266                	sw	s9,36(sp)
    109a:	c686                	sw	ra,76(sp)
    109c:	c4a2                	sw	s0,72(sp)
    109e:	c2a6                	sw	s1,68(sp)
    10a0:	d462                	sw	s8,40(sp)
    10a2:	89aa                	mv	s3,a0
    10a4:	8b2e                	mv	s6,a1
    10a6:	8a32                	mv	s4,a2
d:\CH573FEVT\CH573F_TFT\obj/../src/TFTc/TFT_CAD.c:882
	int32_t error = radiusY2 - (radiusX2 * radiusY) + (radiusX2 / 4);
    10a8:	03b707b3          	mul	a5,a4,s11
    10ac:	402dd713          	srai	a4,s11,0x2
d:\CH573FEVT\CH573F_TFT\obj/../src/TFTc/TFT_CAD.c:885

	// 绗涓哄
	while (radiusX2 * y > radiusY2 * x)
    10b0:	4901                	li	s2,0
d:\CH573FEVT\CH573F_TFT\obj/../src/TFTc/TFT_CAD.c:878
	int32_t x = 0;
    10b2:	4c81                	li	s9,0
    10b4:	031d08b3          	mul	a7,s10,a7
d:\CH573FEVT\CH573F_TFT\obj/../src/TFTc/TFT_CAD.c:882
	int32_t error = radiusY2 - (radiusX2 * radiusY) + (radiusX2 / 4);
    10b8:	40fd07b3          	sub	a5,s10,a5
    10bc:	97ba                	add	a5,a5,a4
d:\CH573FEVT\CH573F_TFT\obj/../src/TFTc/TFT_CAD.c:885
	while (radiusX2 * y > radiusY2 * x)
    10be:	03bb8c33          	mul	s8,s7,s11
    10c2:	05894563          	blt	s2,s8,110c <TFT_Fill_Ellipse+0x94>
d:\CH573FEVT\CH573F_TFT\obj/../src/TFTc/TFT_CAD.c:901
		x++;
		error += 2 * radiusY2 * x + radiusY2;
	}

	// 绗浜哄
	error = radiusY2 * x * x + radiusX2 * y * y - radiusX2 * radiusY2;
    10c6:	fffb8493          	addi	s1,s7,-1
    10ca:	03b484b3          	mul	s1,s1,s11
    10ce:	5779                	li	a4,-2
    10d0:	03990433          	mul	s0,s2,s9
    10d4:	037c0c33          	mul	s8,s8,s7
    10d8:	03ad87b3          	mul	a5,s11,s10
    10dc:	9462                	add	s0,s0,s8
    10de:	02e484b3          	mul	s1,s1,a4
    10e2:	8c1d                	sub	s0,s0,a5
d:\CH573FEVT\CH573F_TFT\obj/../src/TFTc/TFT_CAD.c:903

	while (y >= 0)
    10e4:	001d9793          	slli	a5,s11,0x1
    10e8:	94ee                	add	s1,s1,s11
    10ea:	080bd963          	bgez	s7,117c <TFT_Fill_Ellipse+0x104>
d:\CH573FEVT\CH573F_TFT\obj/../src/TFTc/TFT_CAD.c:917
			error += 2 * radiusY2 * x;
		}
		y--;
		error += -2 * radiusX2 * y + radiusX2;
	}
}
    10ee:	40b6                	lw	ra,76(sp)
    10f0:	4426                	lw	s0,72(sp)
    10f2:	4496                	lw	s1,68(sp)
    10f4:	4906                	lw	s2,64(sp)
    10f6:	59f2                	lw	s3,60(sp)
    10f8:	5a62                	lw	s4,56(sp)
    10fa:	5ad2                	lw	s5,52(sp)
    10fc:	5b42                	lw	s6,48(sp)
    10fe:	5bb2                	lw	s7,44(sp)
    1100:	5c22                	lw	s8,40(sp)
    1102:	5c92                	lw	s9,36(sp)
    1104:	5d02                	lw	s10,32(sp)
    1106:	4df2                	lw	s11,28(sp)
    1108:	6161                	addi	sp,sp,80
    110a:	8082                	ret
    110c:	010c9413          	slli	s0,s9,0x10
    1110:	8041                	srli	s0,s0,0x10
    1112:	408b0833          	sub	a6,s6,s0
d:\CH573FEVT\CH573F_TFT\obj/../src/TFTc/TFT_CAD.c:888
		TFT_Draw_Fast_HLine(htft, centerX - x, centerY + y, 2 * x + 1, color);
    1116:	010b9493          	slli	s1,s7,0x10
    111a:	0406                	slli	s0,s0,0x1
    111c:	80c1                	srli	s1,s1,0x10
    111e:	0405                	addi	s0,s0,1
    1120:	0842                	slli	a6,a6,0x10
    1122:	0442                	slli	s0,s0,0x10
    1124:	01448633          	add	a2,s1,s4
    1128:	01085813          	srli	a6,a6,0x10
    112c:	8041                	srli	s0,s0,0x10
    112e:	0642                	slli	a2,a2,0x10
    1130:	85c2                	mv	a1,a6
    1132:	8756                	mv	a4,s5
    1134:	86a2                	mv	a3,s0
    1136:	8241                	srli	a2,a2,0x10
    1138:	854e                	mv	a0,s3
    113a:	c646                	sw	a7,12(sp)
    113c:	c43e                	sw	a5,8(sp)
    113e:	c242                	sw	a6,4(sp)
    1140:	facff0ef          	jal	ra,8ec <TFT_Draw_Fast_HLine>
d:\CH573FEVT\CH573F_TFT\obj/../src/TFTc/TFT_CAD.c:889
		TFT_Draw_Fast_HLine(htft, centerX - x, centerY - y, 2 * x + 1, color);
    1144:	4812                	lw	a6,4(sp)
    1146:	409a0633          	sub	a2,s4,s1
    114a:	0642                	slli	a2,a2,0x10
    114c:	8756                	mv	a4,s5
    114e:	86a2                	mv	a3,s0
    1150:	8241                	srli	a2,a2,0x10
    1152:	85c2                	mv	a1,a6
    1154:	854e                	mv	a0,s3
    1156:	f96ff0ef          	jal	ra,8ec <TFT_Draw_Fast_HLine>
d:\CH573FEVT\CH573F_TFT\obj/../src/TFTc/TFT_CAD.c:891
		if (error >= 0)
    115a:	47a2                	lw	a5,8(sp)
    115c:	48b2                	lw	a7,12(sp)
    115e:	0007c863          	bltz	a5,116e <TFT_Fill_Ellipse+0xf6>
d:\CH573FEVT\CH573F_TFT\obj/../src/TFTc/TFT_CAD.c:894
			error -= 2 * radiusX2 * y;
    1162:	41bc0c33          	sub	s8,s8,s11
    1166:	0c06                	slli	s8,s8,0x1
d:\CH573FEVT\CH573F_TFT\obj/../src/TFTc/TFT_CAD.c:893
			y--;
    1168:	1bfd                	addi	s7,s7,-1
d:\CH573FEVT\CH573F_TFT\obj/../src/TFTc/TFT_CAD.c:894
			error -= 2 * radiusX2 * y;
    116a:	418787b3          	sub	a5,a5,s8
d:\CH573FEVT\CH573F_TFT\obj/../src/TFTc/TFT_CAD.c:897
		error += 2 * radiusY2 * x + radiusY2;
    116e:	00191713          	slli	a4,s2,0x1
    1172:	9746                	add	a4,a4,a7
d:\CH573FEVT\CH573F_TFT\obj/../src/TFTc/TFT_CAD.c:896
		x++;
    1174:	0c85                	addi	s9,s9,1
d:\CH573FEVT\CH573F_TFT\obj/../src/TFTc/TFT_CAD.c:897
		error += 2 * radiusY2 * x + radiusY2;
    1176:	97ba                	add	a5,a5,a4
    1178:	996a                	add	s2,s2,s10
    117a:	b791                	j	10be <TFT_Fill_Ellipse+0x46>
d:\CH573FEVT\CH573F_TFT\obj/../src/TFTc/TFT_CAD.c:906
		TFT_Draw_Fast_HLine(htft, centerX - x, centerY + y, 2 * x + 1, color);
    117c:	010c9913          	slli	s2,s9,0x10
    1180:	01095913          	srli	s2,s2,0x10
    1184:	412b0db3          	sub	s11,s6,s2
    1188:	010b9c13          	slli	s8,s7,0x10
    118c:	0906                	slli	s2,s2,0x1
    118e:	010c5c13          	srli	s8,s8,0x10
    1192:	0905                	addi	s2,s2,1
    1194:	0dc2                	slli	s11,s11,0x10
    1196:	0942                	slli	s2,s2,0x10
    1198:	018a0633          	add	a2,s4,s8
    119c:	010ddd93          	srli	s11,s11,0x10
    11a0:	01095913          	srli	s2,s2,0x10
    11a4:	0642                	slli	a2,a2,0x10
    11a6:	8756                	mv	a4,s5
    11a8:	86ca                	mv	a3,s2
    11aa:	8241                	srli	a2,a2,0x10
    11ac:	85ee                	mv	a1,s11
    11ae:	854e                	mv	a0,s3
    11b0:	c23e                	sw	a5,4(sp)
    11b2:	f3aff0ef          	jal	ra,8ec <TFT_Draw_Fast_HLine>
d:\CH573FEVT\CH573F_TFT\obj/../src/TFTc/TFT_CAD.c:907
		TFT_Draw_Fast_HLine(htft, centerX - x, centerY - y, 2 * x + 1, color);
    11b6:	418a0633          	sub	a2,s4,s8
    11ba:	0642                	slli	a2,a2,0x10
    11bc:	8756                	mv	a4,s5
    11be:	86ca                	mv	a3,s2
    11c0:	8241                	srli	a2,a2,0x10
    11c2:	85ee                	mv	a1,s11
    11c4:	854e                	mv	a0,s3
    11c6:	f26ff0ef          	jal	ra,8ec <TFT_Draw_Fast_HLine>
d:\CH573FEVT\CH573F_TFT\obj/../src/TFTc/TFT_CAD.c:909
		if (error <= 0)
    11ca:	4792                	lw	a5,4(sp)
    11cc:	00804763          	bgtz	s0,11da <TFT_Fill_Ellipse+0x162>
d:\CH573FEVT\CH573F_TFT\obj/../src/TFTc/TFT_CAD.c:911
			x++;
    11d0:	0c85                	addi	s9,s9,1
d:\CH573FEVT\CH573F_TFT\obj/../src/TFTc/TFT_CAD.c:912
			error += 2 * radiusY2 * x;
    11d2:	039d0733          	mul	a4,s10,s9
    11d6:	0706                	slli	a4,a4,0x1
    11d8:	943a                	add	s0,s0,a4
d:\CH573FEVT\CH573F_TFT\obj/../src/TFTc/TFT_CAD.c:915
		error += -2 * radiusX2 * y + radiusX2;
    11da:	9426                	add	s0,s0,s1
d:\CH573FEVT\CH573F_TFT\obj/../src/TFTc/TFT_CAD.c:914
		y--;
    11dc:	1bfd                	addi	s7,s7,-1
d:\CH573FEVT\CH573F_TFT\obj/../src/TFTc/TFT_CAD.c:915
		error += -2 * radiusX2 * y + radiusX2;
    11de:	94be                	add	s1,s1,a5
    11e0:	b729                	j	10ea <TFT_Fill_Ellipse+0x72>

000011e2 <TFT_Set_Direction>:
TFT_Set_Direction():
d:\CH573FEVT\CH573F_TFT\obj/../src/TFTc/TFT_init.c:162
 * @retval 
 * @note   绉TFT灞骞MADCTL璁剧疆戒锛璇锋规版璋
 *         ST7735S绾㈡垮ST7735R榛跨MADCTL璁剧疆棰查『搴涓
 */
static void TFT_Set_Direction(TFT_HandleTypeDef *htft, uint8_t direction)
{
    11e2:	1141                	addi	sp,sp,-16
    11e4:	c226                	sw	s1,4(sp)
    11e6:	84ae                	mv	s1,a1
d:\CH573FEVT\CH573F_TFT\obj/../src/TFTc/TFT_init.c:163
	TFT_Write_Command(htft, 0x36); // MADCTL - Memory Data Access Control
    11e8:	03600593          	li	a1,54
d:\CH573FEVT\CH573F_TFT\obj/../src/TFTc/TFT_init.c:162
{
    11ec:	c422                	sw	s0,8(sp)
    11ee:	c606                	sw	ra,12(sp)
    11f0:	842a                	mv	s0,a0
d:\CH573FEVT\CH573F_TFT\obj/../src/TFTc/TFT_init.c:163
	TFT_Write_Command(htft, 0x36); // MADCTL - Memory Data Access Control
    11f2:	0b3000ef          	jal	ra,1aa4 <TFT_Write_Command>
d:\CH573FEVT\CH573F_TFT\obj/../src/TFTc/TFT_init.c:173
	// MX: 板椤哄 (0=浠宸板, 1=浠冲板乏)
	// MV: 琛/浜ゆ (0=姝ｅ父, 1=浜ゆ)
	// ML: 村锋伴『搴 (0=浠涓颁, 1=浠涓颁)
	// RGB: 棰查『搴 (0=RGB, 1=BGR)
	// MH: 姘村钩锋伴『搴 (0=浠宸板, 1=浠冲板乏)
	switch (direction)
    11f6:	4785                	li	a5,1
d:\CH573FEVT\CH573F_TFT\obj/../src/TFTc/TFT_init.c:179
	{
	case 0:							 // 0搴杞
		TFT_Write_Data8(htft, 0x00); // MY=0, MX=0, MV=0, RGB
		break;
	case 1:							 // 90搴杞
		TFT_Write_Data8(htft, 0xA0); // MY=1, MX=0, MV=1, RGB
    11f8:	0a000593          	li	a1,160
    11fc:	00f48f63          	beq	s1,a5,121a <TFT_Set_Direction+0x38>
d:\CH573FEVT\CH573F_TFT\obj/../src/TFTc/TFT_init.c:176
		TFT_Write_Data8(htft, 0x00); // MY=0, MX=0, MV=0, RGB
    1200:	4581                	li	a1,0
    1202:	cc81                	beqz	s1,121a <TFT_Set_Direction+0x38>
    1204:	4789                	li	a5,2
    1206:	00f48863          	beq	s1,a5,1216 <TFT_Set_Direction+0x34>
    120a:	478d                	li	a5,3
    120c:	00f49563          	bne	s1,a5,1216 <TFT_Set_Direction+0x34>
d:\CH573FEVT\CH573F_TFT\obj/../src/TFTc/TFT_init.c:185
		break;
	case 2:							 // 180搴杞
		TFT_Write_Data8(htft, 0xC0); // MY=1, MX=1, MV=0, RGB
		break;
	case 3:							 // 270搴杞
		TFT_Write_Data8(htft, 0x60); // MY=0, MX=1, MV=1, RGB
    1210:	06000593          	li	a1,96
    1214:	a019                	j	121a <TFT_Set_Direction+0x38>
d:\CH573FEVT\CH573F_TFT\obj/../src/TFTc/TFT_init.c:182
		TFT_Write_Data8(htft, 0xC0); // MY=1, MX=1, MV=0, RGB
    1216:	0c000593          	li	a1,192
d:\CH573FEVT\CH573F_TFT\obj/../src/TFTc/TFT_init.c:185
		TFT_Write_Data8(htft, 0x60); // MY=0, MX=1, MV=1, RGB
    121a:	8522                	mv	a0,s0
d:\CH573FEVT\CH573F_TFT\obj/../src/TFTc/TFT_init.c:191
		break;
	default:						 // 榛璁0搴杞
		TFT_Write_Data8(htft, 0xC0); // MY=1, MX=1, MV=0, RGB
		break;
	}
}
    121c:	4422                	lw	s0,8(sp)
    121e:	40b2                	lw	ra,12(sp)
    1220:	4492                	lw	s1,4(sp)
    1222:	0141                	addi	sp,sp,16
d:\CH573FEVT\CH573F_TFT\obj/../src/TFTc/TFT_init.c:185
		TFT_Write_Data8(htft, 0x60); // MY=0, MX=1, MV=1, RGB
    1224:	0090006f          	j	1a2c <TFT_Write_Data8>

00001228 <TFT_Init_ST7735S>:
TFT_Init_ST7735S():
d:\CH573FEVT\CH573F_TFT\obj/../src/TFTc/TFT_init.c:20
{
    1228:	1141                	addi	sp,sp,-16
    122a:	c606                	sw	ra,12(sp)
    122c:	c422                	sw	s0,8(sp)
    122e:	842a                	mv	s0,a0
d:\CH573FEVT\CH573F_TFT\obj/../src/TFTc/TFT_init.c:22
	TFT_IO_Init(htft);
    1230:	7a4000ef          	jal	ra,19d4 <TFT_IO_Init>
d:\CH573FEVT\CH573F_TFT\obj/../src/TFTc/TFT_init.c:25
	TFT_Pin_RES_Set(htft, 0);
    1234:	4581                	li	a1,0
    1236:	8522                	mv	a0,s0
    1238:	59e000ef          	jal	ra,17d6 <TFT_Pin_RES_Set>
d:\CH573FEVT\CH573F_TFT\obj/../src/TFTc/TFT_init.c:26
	HAL_Delay(100);
    123c:	06400513          	li	a0,100
    1240:	20003097          	auipc	ra,0x20003
    1244:	824080e7          	jalr	-2012(ra) # 20003a64 <mDelaymS>
d:\CH573FEVT\CH573F_TFT\obj/../src/TFTc/TFT_init.c:27
	TFT_Pin_RES_Set(htft, 1);
    1248:	4585                	li	a1,1
    124a:	8522                	mv	a0,s0
    124c:	58a000ef          	jal	ra,17d6 <TFT_Pin_RES_Set>
d:\CH573FEVT\CH573F_TFT\obj/../src/TFTc/TFT_init.c:28
	HAL_Delay(100);
    1250:	06400513          	li	a0,100
    1254:	20003097          	auipc	ra,0x20003
    1258:	810080e7          	jalr	-2032(ra) # 20003a64 <mDelaymS>
d:\CH573FEVT\CH573F_TFT\obj/../src/TFTc/TFT_init.c:30
	TFT_Pin_BLK_Set(htft, 1); // 寮 (楂)
    125c:	4585                	li	a1,1
    125e:	8522                	mv	a0,s0
    1260:	636000ef          	jal	ra,1896 <TFT_Pin_BLK_Set>
d:\CH573FEVT\CH573F_TFT\obj/../src/TFTc/TFT_init.c:31
	HAL_Delay(100);
    1264:	06400513          	li	a0,100
    1268:	20002097          	auipc	ra,0x20002
    126c:	7fc080e7          	jalr	2044(ra) # 20003a64 <mDelaymS>
d:\CH573FEVT\CH573F_TFT\obj/../src/TFTc/TFT_init.c:34
	TFT_Write_Command(htft, 0x01);
    1270:	4585                	li	a1,1
    1272:	8522                	mv	a0,s0
    1274:	031000ef          	jal	ra,1aa4 <TFT_Write_Command>
d:\CH573FEVT\CH573F_TFT\obj/../src/TFTc/TFT_init.c:35
	HAL_Delay(150);
    1278:	09600513          	li	a0,150
    127c:	20002097          	auipc	ra,0x20002
    1280:	7e8080e7          	jalr	2024(ra) # 20003a64 <mDelaymS>
d:\CH573FEVT\CH573F_TFT\obj/../src/TFTc/TFT_init.c:38
	TFT_Write_Command(htft, 0x11); // 虹＄妯″
    1284:	45c5                	li	a1,17
    1286:	8522                	mv	a0,s0
    1288:	01d000ef          	jal	ra,1aa4 <TFT_Write_Command>
d:\CH573FEVT\CH573F_TFT\obj/../src/TFTc/TFT_init.c:39
	HAL_Delay(255);
    128c:	0ff00513          	li	a0,255
    1290:	20002097          	auipc	ra,0x20002
    1294:	7d4080e7          	jalr	2004(ra) # 20003a64 <mDelaymS>
d:\CH573FEVT\CH573F_TFT\obj/../src/TFTc/TFT_init.c:42
	TFT_Write_Command(htft, 0xB1); // FRMCTR1 (In normal mode/ Full colors)
    1298:	8522                	mv	a0,s0
    129a:	0b100593          	li	a1,177
    129e:	007000ef          	jal	ra,1aa4 <TFT_Write_Command>
d:\CH573FEVT\CH573F_TFT\obj/../src/TFTc/TFT_init.c:43
	TFT_Write_Data8(htft, 0x01);   // Frame rate = fosc/(1*2+40) * (LINE+2C+2D)
    12a2:	8522                	mv	a0,s0
    12a4:	4585                	li	a1,1
    12a6:	786000ef          	jal	ra,1a2c <TFT_Write_Data8>
d:\CH573FEVT\CH573F_TFT\obj/../src/TFTc/TFT_init.c:44
	TFT_Write_Data8(htft, 0x2C);
    12aa:	8522                	mv	a0,s0
    12ac:	02c00593          	li	a1,44
    12b0:	77c000ef          	jal	ra,1a2c <TFT_Write_Data8>
d:\CH573FEVT\CH573F_TFT\obj/../src/TFTc/TFT_init.c:45
	TFT_Write_Data8(htft, 0x2D);
    12b4:	8522                	mv	a0,s0
    12b6:	02d00593          	li	a1,45
    12ba:	772000ef          	jal	ra,1a2c <TFT_Write_Data8>
d:\CH573FEVT\CH573F_TFT\obj/../src/TFTc/TFT_init.c:48
	TFT_Write_Command(htft, 0xB2); // FRMCTR2 (In Idle mode/ 8-colors)
    12be:	8522                	mv	a0,s0
    12c0:	0b200593          	li	a1,178
    12c4:	7e0000ef          	jal	ra,1aa4 <TFT_Write_Command>
d:\CH573FEVT\CH573F_TFT\obj/../src/TFTc/TFT_init.c:49
	TFT_Write_Data8(htft, 0x01);
    12c8:	8522                	mv	a0,s0
    12ca:	4585                	li	a1,1
    12cc:	760000ef          	jal	ra,1a2c <TFT_Write_Data8>
d:\CH573FEVT\CH573F_TFT\obj/../src/TFTc/TFT_init.c:50
	TFT_Write_Data8(htft, 0x2C);
    12d0:	8522                	mv	a0,s0
    12d2:	02c00593          	li	a1,44
    12d6:	756000ef          	jal	ra,1a2c <TFT_Write_Data8>
d:\CH573FEVT\CH573F_TFT\obj/../src/TFTc/TFT_init.c:51
	TFT_Write_Data8(htft, 0x2D);
    12da:	8522                	mv	a0,s0
    12dc:	02d00593          	li	a1,45
    12e0:	74c000ef          	jal	ra,1a2c <TFT_Write_Data8>
d:\CH573FEVT\CH573F_TFT\obj/../src/TFTc/TFT_init.c:54
	TFT_Write_Command(htft, 0xB3); // FRMCTR3 (In Partial mode/ full colors)
    12e4:	8522                	mv	a0,s0
    12e6:	0b300593          	li	a1,179
    12ea:	7ba000ef          	jal	ra,1aa4 <TFT_Write_Command>
d:\CH573FEVT\CH573F_TFT\obj/../src/TFTc/TFT_init.c:55
	TFT_Write_Data8(htft, 0x01);
    12ee:	8522                	mv	a0,s0
    12f0:	4585                	li	a1,1
    12f2:	73a000ef          	jal	ra,1a2c <TFT_Write_Data8>
d:\CH573FEVT\CH573F_TFT\obj/../src/TFTc/TFT_init.c:56
	TFT_Write_Data8(htft, 0x2C);
    12f6:	8522                	mv	a0,s0
    12f8:	02c00593          	li	a1,44
    12fc:	730000ef          	jal	ra,1a2c <TFT_Write_Data8>
d:\CH573FEVT\CH573F_TFT\obj/../src/TFTc/TFT_init.c:57
	TFT_Write_Data8(htft, 0x2D);
    1300:	8522                	mv	a0,s0
    1302:	02d00593          	li	a1,45
    1306:	726000ef          	jal	ra,1a2c <TFT_Write_Data8>
d:\CH573FEVT\CH573F_TFT\obj/../src/TFTc/TFT_init.c:58
	TFT_Write_Data8(htft, 0x01);
    130a:	8522                	mv	a0,s0
    130c:	4585                	li	a1,1
    130e:	71e000ef          	jal	ra,1a2c <TFT_Write_Data8>
d:\CH573FEVT\CH573F_TFT\obj/../src/TFTc/TFT_init.c:59
	TFT_Write_Data8(htft, 0x2C);
    1312:	8522                	mv	a0,s0
    1314:	02c00593          	li	a1,44
    1318:	714000ef          	jal	ra,1a2c <TFT_Write_Data8>
d:\CH573FEVT\CH573F_TFT\obj/../src/TFTc/TFT_init.c:60
	TFT_Write_Data8(htft, 0x2D);
    131c:	8522                	mv	a0,s0
    131e:	02d00593          	li	a1,45
    1322:	70a000ef          	jal	ra,1a2c <TFT_Write_Data8>
d:\CH573FEVT\CH573F_TFT\obj/../src/TFTc/TFT_init.c:63
	TFT_Write_Command(htft, 0xB4); // INVCTR
    1326:	8522                	mv	a0,s0
    1328:	0b400593          	li	a1,180
    132c:	778000ef          	jal	ra,1aa4 <TFT_Write_Command>
d:\CH573FEVT\CH573F_TFT\obj/../src/TFTc/TFT_init.c:64
	TFT_Write_Data8(htft, 0x07);   // 瑁
    1330:	8522                	mv	a0,s0
    1332:	459d                	li	a1,7
    1334:	6f8000ef          	jal	ra,1a2c <TFT_Write_Data8>
d:\CH573FEVT\CH573F_TFT\obj/../src/TFTc/TFT_init.c:67
	TFT_Write_Command(htft, 0xC0); // PWCTR1
    1338:	8522                	mv	a0,s0
    133a:	0c000593          	li	a1,192
    133e:	766000ef          	jal	ra,1aa4 <TFT_Write_Command>
d:\CH573FEVT\CH573F_TFT\obj/../src/TFTc/TFT_init.c:68
	TFT_Write_Data8(htft, 0xA2);   // -4.6V
    1342:	8522                	mv	a0,s0
    1344:	0a200593          	li	a1,162
    1348:	6e4000ef          	jal	ra,1a2c <TFT_Write_Data8>
d:\CH573FEVT\CH573F_TFT\obj/../src/TFTc/TFT_init.c:69
	TFT_Write_Data8(htft, 0x02);   // AVCC=VCIx2, VGH=VCIx7, VGL=-VCIx4
    134c:	8522                	mv	a0,s0
    134e:	4589                	li	a1,2
    1350:	6dc000ef          	jal	ra,1a2c <TFT_Write_Data8>
d:\CH573FEVT\CH573F_TFT\obj/../src/TFTc/TFT_init.c:70
	TFT_Write_Data8(htft, 0x84);   // Opamp current small, Boost frequency
    1354:	8522                	mv	a0,s0
    1356:	08400593          	li	a1,132
    135a:	6d2000ef          	jal	ra,1a2c <TFT_Write_Data8>
d:\CH573FEVT\CH573F_TFT\obj/../src/TFTc/TFT_init.c:73
	TFT_Write_Command(htft, 0xC1); // PWCTR2
    135e:	8522                	mv	a0,s0
    1360:	0c100593          	li	a1,193
    1364:	740000ef          	jal	ra,1aa4 <TFT_Write_Command>
d:\CH573FEVT\CH573F_TFT\obj/../src/TFTc/TFT_init.c:74
	TFT_Write_Data8(htft, 0xC5);   // VGH = VCI * 2.5, VGL = -VCI * 2.5
    1368:	8522                	mv	a0,s0
    136a:	0c500593          	li	a1,197
    136e:	6be000ef          	jal	ra,1a2c <TFT_Write_Data8>
d:\CH573FEVT\CH573F_TFT\obj/../src/TFTc/TFT_init.c:77
	TFT_Write_Command(htft, 0xC2); // PWCTR3 (In Normal mode/ Full colors)
    1372:	8522                	mv	a0,s0
    1374:	0c200593          	li	a1,194
    1378:	72c000ef          	jal	ra,1aa4 <TFT_Write_Command>
d:\CH573FEVT\CH573F_TFT\obj/../src/TFTc/TFT_init.c:78
	TFT_Write_Data8(htft, 0x0A);   // Opamp current small, Boost frequency
    137c:	8522                	mv	a0,s0
    137e:	45a9                	li	a1,10
    1380:	6ac000ef          	jal	ra,1a2c <TFT_Write_Data8>
d:\CH573FEVT\CH573F_TFT\obj/../src/TFTc/TFT_init.c:79
	TFT_Write_Data8(htft, 0x00);   // Boost frequency
    1384:	8522                	mv	a0,s0
    1386:	4581                	li	a1,0
    1388:	6a4000ef          	jal	ra,1a2c <TFT_Write_Data8>
d:\CH573FEVT\CH573F_TFT\obj/../src/TFTc/TFT_init.c:82
	TFT_Write_Command(htft, 0xC3); // PWCTR4 (In Idle mode/ 8-colors)
    138c:	8522                	mv	a0,s0
    138e:	0c300593          	li	a1,195
    1392:	712000ef          	jal	ra,1aa4 <TFT_Write_Command>
d:\CH573FEVT\CH573F_TFT\obj/../src/TFTc/TFT_init.c:83
	TFT_Write_Data8(htft, 0x8A);   // Opamp current small, Boost frequency
    1396:	8522                	mv	a0,s0
    1398:	08a00593          	li	a1,138
    139c:	690000ef          	jal	ra,1a2c <TFT_Write_Data8>
d:\CH573FEVT\CH573F_TFT\obj/../src/TFTc/TFT_init.c:84
	TFT_Write_Data8(htft, 0x2A);   // Boost frequency
    13a0:	8522                	mv	a0,s0
    13a2:	02a00593          	li	a1,42
    13a6:	686000ef          	jal	ra,1a2c <TFT_Write_Data8>
d:\CH573FEVT\CH573F_TFT\obj/../src/TFTc/TFT_init.c:87
	TFT_Write_Command(htft, 0xC4); // PWCTR5 (In Partial mode/ full colors)
    13aa:	8522                	mv	a0,s0
    13ac:	0c400593          	li	a1,196
    13b0:	6f4000ef          	jal	ra,1aa4 <TFT_Write_Command>
d:\CH573FEVT\CH573F_TFT\obj/../src/TFTc/TFT_init.c:88
	TFT_Write_Data8(htft, 0x8A);   // Opamp current small, Boost frequency
    13b4:	8522                	mv	a0,s0
    13b6:	08a00593          	li	a1,138
    13ba:	672000ef          	jal	ra,1a2c <TFT_Write_Data8>
d:\CH573FEVT\CH573F_TFT\obj/../src/TFTc/TFT_init.c:89
	TFT_Write_Data8(htft, 0xEE);   // Boost frequency
    13be:	8522                	mv	a0,s0
    13c0:	0ee00593          	li	a1,238
    13c4:	668000ef          	jal	ra,1a2c <TFT_Write_Data8>
d:\CH573FEVT\CH573F_TFT\obj/../src/TFTc/TFT_init.c:92
	TFT_Write_Command(htft, 0xC5); // VMCTR1
    13c8:	8522                	mv	a0,s0
    13ca:	0c500593          	li	a1,197
    13ce:	6d6000ef          	jal	ra,1aa4 <TFT_Write_Command>
d:\CH573FEVT\CH573F_TFT\obj/../src/TFTc/TFT_init.c:93
	TFT_Write_Data8(htft, 0x0E);   // VCOMH = 4.025V, VCOML = -1.5V
    13d2:	8522                	mv	a0,s0
    13d4:	45b9                	li	a1,14
    13d6:	656000ef          	jal	ra,1a2c <TFT_Write_Data8>
d:\CH573FEVT\CH573F_TFT\obj/../src/TFTc/TFT_init.c:96
	TFT_Set_Direction(htft, htft->display_direction);
    13da:	02e44583          	lbu	a1,46(s0)
    13de:	8522                	mv	a0,s0
    13e0:	3509                	jal	11e2 <TFT_Set_Direction>
d:\CH573FEVT\CH573F_TFT\obj/../src/TFTc/TFT_init.c:99
	TFT_Write_Command(htft, 0x3A); // COLMOD
    13e2:	8522                	mv	a0,s0
    13e4:	03a00593          	li	a1,58
    13e8:	6bc000ef          	jal	ra,1aa4 <TFT_Write_Command>
d:\CH573FEVT\CH573F_TFT\obj/../src/TFTc/TFT_init.c:100
	TFT_Write_Data8(htft, 0x05);   // 16浣绱煎 (RGB565)
    13ec:	8522                	mv	a0,s0
    13ee:	4595                	li	a1,5
    13f0:	63c000ef          	jal	ra,1a2c <TFT_Write_Data8>
d:\CH573FEVT\CH573F_TFT\obj/../src/TFTc/TFT_init.c:104
	TFT_Write_Command(htft, 0xE0); // GMCTRP1
    13f4:	8522                	mv	a0,s0
    13f6:	0e000593          	li	a1,224
    13fa:	6aa000ef          	jal	ra,1aa4 <TFT_Write_Command>
d:\CH573FEVT\CH573F_TFT\obj/../src/TFTc/TFT_init.c:105
	TFT_Write_Data8(htft, 0x0F);
    13fe:	8522                	mv	a0,s0
    1400:	45bd                	li	a1,15
    1402:	62a000ef          	jal	ra,1a2c <TFT_Write_Data8>
d:\CH573FEVT\CH573F_TFT\obj/../src/TFTc/TFT_init.c:106
	TFT_Write_Data8(htft, 0x1A);
    1406:	8522                	mv	a0,s0
    1408:	45e9                	li	a1,26
    140a:	622000ef          	jal	ra,1a2c <TFT_Write_Data8>
d:\CH573FEVT\CH573F_TFT\obj/../src/TFTc/TFT_init.c:107
	TFT_Write_Data8(htft, 0x0F);
    140e:	8522                	mv	a0,s0
    1410:	45bd                	li	a1,15
    1412:	61a000ef          	jal	ra,1a2c <TFT_Write_Data8>
d:\CH573FEVT\CH573F_TFT\obj/../src/TFTc/TFT_init.c:108
	TFT_Write_Data8(htft, 0x18);
    1416:	8522                	mv	a0,s0
    1418:	45e1                	li	a1,24
    141a:	612000ef          	jal	ra,1a2c <TFT_Write_Data8>
d:\CH573FEVT\CH573F_TFT\obj/../src/TFTc/TFT_init.c:109
	TFT_Write_Data8(htft, 0x2F);
    141e:	8522                	mv	a0,s0
    1420:	02f00593          	li	a1,47
    1424:	608000ef          	jal	ra,1a2c <TFT_Write_Data8>
d:\CH573FEVT\CH573F_TFT\obj/../src/TFTc/TFT_init.c:110
	TFT_Write_Data8(htft, 0x28);
    1428:	8522                	mv	a0,s0
    142a:	02800593          	li	a1,40
    142e:	5fe000ef          	jal	ra,1a2c <TFT_Write_Data8>
d:\CH573FEVT\CH573F_TFT\obj/../src/TFTc/TFT_init.c:111
	TFT_Write_Data8(htft, 0x20);
    1432:	8522                	mv	a0,s0
    1434:	02000593          	li	a1,32
    1438:	5f4000ef          	jal	ra,1a2c <TFT_Write_Data8>
d:\CH573FEVT\CH573F_TFT\obj/../src/TFTc/TFT_init.c:112
	TFT_Write_Data8(htft, 0x22);
    143c:	8522                	mv	a0,s0
    143e:	02200593          	li	a1,34
    1442:	5ea000ef          	jal	ra,1a2c <TFT_Write_Data8>
d:\CH573FEVT\CH573F_TFT\obj/../src/TFTc/TFT_init.c:113
	TFT_Write_Data8(htft, 0x1F);
    1446:	8522                	mv	a0,s0
    1448:	45fd                	li	a1,31
    144a:	5e2000ef          	jal	ra,1a2c <TFT_Write_Data8>
d:\CH573FEVT\CH573F_TFT\obj/../src/TFTc/TFT_init.c:114
	TFT_Write_Data8(htft, 0x1B);
    144e:	8522                	mv	a0,s0
    1450:	45ed                	li	a1,27
    1452:	5da000ef          	jal	ra,1a2c <TFT_Write_Data8>
d:\CH573FEVT\CH573F_TFT\obj/../src/TFTc/TFT_init.c:115
	TFT_Write_Data8(htft, 0x23);
    1456:	8522                	mv	a0,s0
    1458:	02300593          	li	a1,35
    145c:	5d0000ef          	jal	ra,1a2c <TFT_Write_Data8>
d:\CH573FEVT\CH573F_TFT\obj/../src/TFTc/TFT_init.c:116
	TFT_Write_Data8(htft, 0x37);
    1460:	8522                	mv	a0,s0
    1462:	03700593          	li	a1,55
    1466:	5c6000ef          	jal	ra,1a2c <TFT_Write_Data8>
d:\CH573FEVT\CH573F_TFT\obj/../src/TFTc/TFT_init.c:117
	TFT_Write_Data8(htft, 0x00);
    146a:	8522                	mv	a0,s0
    146c:	4581                	li	a1,0
    146e:	5be000ef          	jal	ra,1a2c <TFT_Write_Data8>
d:\CH573FEVT\CH573F_TFT\obj/../src/TFTc/TFT_init.c:118
	TFT_Write_Data8(htft, 0x07);
    1472:	8522                	mv	a0,s0
    1474:	459d                	li	a1,7
    1476:	5b6000ef          	jal	ra,1a2c <TFT_Write_Data8>
d:\CH573FEVT\CH573F_TFT\obj/../src/TFTc/TFT_init.c:119
	TFT_Write_Data8(htft, 0x02);
    147a:	8522                	mv	a0,s0
    147c:	4589                	li	a1,2
    147e:	5ae000ef          	jal	ra,1a2c <TFT_Write_Data8>
d:\CH573FEVT\CH573F_TFT\obj/../src/TFTc/TFT_init.c:120
	TFT_Write_Data8(htft, 0x10);
    1482:	8522                	mv	a0,s0
    1484:	45c1                	li	a1,16
    1486:	5a6000ef          	jal	ra,1a2c <TFT_Write_Data8>
d:\CH573FEVT\CH573F_TFT\obj/../src/TFTc/TFT_init.c:122
	TFT_Write_Command(htft, 0xE1); // GMCTRN1
    148a:	8522                	mv	a0,s0
    148c:	0e100593          	li	a1,225
    1490:	614000ef          	jal	ra,1aa4 <TFT_Write_Command>
d:\CH573FEVT\CH573F_TFT\obj/../src/TFTc/TFT_init.c:123
	TFT_Write_Data8(htft, 0x0F);
    1494:	8522                	mv	a0,s0
    1496:	45bd                	li	a1,15
    1498:	594000ef          	jal	ra,1a2c <TFT_Write_Data8>
d:\CH573FEVT\CH573F_TFT\obj/../src/TFTc/TFT_init.c:124
	TFT_Write_Data8(htft, 0x1B);
    149c:	8522                	mv	a0,s0
    149e:	45ed                	li	a1,27
    14a0:	58c000ef          	jal	ra,1a2c <TFT_Write_Data8>
d:\CH573FEVT\CH573F_TFT\obj/../src/TFTc/TFT_init.c:125
	TFT_Write_Data8(htft, 0x0F);
    14a4:	8522                	mv	a0,s0
    14a6:	45bd                	li	a1,15
    14a8:	584000ef          	jal	ra,1a2c <TFT_Write_Data8>
d:\CH573FEVT\CH573F_TFT\obj/../src/TFTc/TFT_init.c:126
	TFT_Write_Data8(htft, 0x17);
    14ac:	8522                	mv	a0,s0
    14ae:	45dd                	li	a1,23
    14b0:	57c000ef          	jal	ra,1a2c <TFT_Write_Data8>
d:\CH573FEVT\CH573F_TFT\obj/../src/TFTc/TFT_init.c:127
	TFT_Write_Data8(htft, 0x33);
    14b4:	8522                	mv	a0,s0
    14b6:	03300593          	li	a1,51
    14ba:	572000ef          	jal	ra,1a2c <TFT_Write_Data8>
d:\CH573FEVT\CH573F_TFT\obj/../src/TFTc/TFT_init.c:128
	TFT_Write_Data8(htft, 0x2C);
    14be:	8522                	mv	a0,s0
    14c0:	02c00593          	li	a1,44
    14c4:	568000ef          	jal	ra,1a2c <TFT_Write_Data8>
d:\CH573FEVT\CH573F_TFT\obj/../src/TFTc/TFT_init.c:129
	TFT_Write_Data8(htft, 0x29);
    14c8:	8522                	mv	a0,s0
    14ca:	02900593          	li	a1,41
    14ce:	55e000ef          	jal	ra,1a2c <TFT_Write_Data8>
d:\CH573FEVT\CH573F_TFT\obj/../src/TFTc/TFT_init.c:130
	TFT_Write_Data8(htft, 0x2E);
    14d2:	8522                	mv	a0,s0
    14d4:	02e00593          	li	a1,46
    14d8:	554000ef          	jal	ra,1a2c <TFT_Write_Data8>
d:\CH573FEVT\CH573F_TFT\obj/../src/TFTc/TFT_init.c:131
	TFT_Write_Data8(htft, 0x30);
    14dc:	8522                	mv	a0,s0
    14de:	03000593          	li	a1,48
    14e2:	54a000ef          	jal	ra,1a2c <TFT_Write_Data8>
d:\CH573FEVT\CH573F_TFT\obj/../src/TFTc/TFT_init.c:132
	TFT_Write_Data8(htft, 0x30);
    14e6:	8522                	mv	a0,s0
    14e8:	03000593          	li	a1,48
    14ec:	540000ef          	jal	ra,1a2c <TFT_Write_Data8>
d:\CH573FEVT\CH573F_TFT\obj/../src/TFTc/TFT_init.c:133
	TFT_Write_Data8(htft, 0x39);
    14f0:	8522                	mv	a0,s0
    14f2:	03900593          	li	a1,57
    14f6:	536000ef          	jal	ra,1a2c <TFT_Write_Data8>
d:\CH573FEVT\CH573F_TFT\obj/../src/TFTc/TFT_init.c:134
	TFT_Write_Data8(htft, 0x3F);
    14fa:	8522                	mv	a0,s0
    14fc:	03f00593          	li	a1,63
    1500:	52c000ef          	jal	ra,1a2c <TFT_Write_Data8>
d:\CH573FEVT\CH573F_TFT\obj/../src/TFTc/TFT_init.c:135
	TFT_Write_Data8(htft, 0x00);
    1504:	8522                	mv	a0,s0
    1506:	4581                	li	a1,0
    1508:	524000ef          	jal	ra,1a2c <TFT_Write_Data8>
d:\CH573FEVT\CH573F_TFT\obj/../src/TFTc/TFT_init.c:136
	TFT_Write_Data8(htft, 0x07);
    150c:	8522                	mv	a0,s0
    150e:	459d                	li	a1,7
    1510:	51c000ef          	jal	ra,1a2c <TFT_Write_Data8>
d:\CH573FEVT\CH573F_TFT\obj/../src/TFTc/TFT_init.c:137
	TFT_Write_Data8(htft, 0x03);
    1514:	8522                	mv	a0,s0
    1516:	458d                	li	a1,3
    1518:	514000ef          	jal	ra,1a2c <TFT_Write_Data8>
d:\CH573FEVT\CH573F_TFT\obj/../src/TFTc/TFT_init.c:138
	TFT_Write_Data8(htft, 0x10);
    151c:	8522                	mv	a0,s0
    151e:	45c1                	li	a1,16
    1520:	50c000ef          	jal	ra,1a2c <TFT_Write_Data8>
d:\CH573FEVT\CH573F_TFT\obj/../src/TFTc/TFT_init.c:141
	TFT_Write_Command(htft, 0x13); // NORON
    1524:	45cd                	li	a1,19
    1526:	8522                	mv	a0,s0
    1528:	57c000ef          	jal	ra,1aa4 <TFT_Write_Command>
d:\CH573FEVT\CH573F_TFT\obj/../src/TFTc/TFT_init.c:142
	HAL_Delay(10);
    152c:	4529                	li	a0,10
    152e:	20002097          	auipc	ra,0x20002
    1532:	536080e7          	jalr	1334(ra) # 20003a64 <mDelaymS>
d:\CH573FEVT\CH573F_TFT\obj/../src/TFTc/TFT_init.c:145
	TFT_Write_Command(htft, 0x29); // Display ON
    1536:	8522                	mv	a0,s0
    1538:	02900593          	li	a1,41
    153c:	568000ef          	jal	ra,1aa4 <TFT_Write_Command>
d:\CH573FEVT\CH573F_TFT\obj/../src/TFTc/TFT_init.c:147
}
    1540:	4422                	lw	s0,8(sp)
    1542:	40b2                	lw	ra,12(sp)
d:\CH573FEVT\CH573F_TFT\obj/../src/TFTc/TFT_init.c:146
	HAL_Delay(20);
    1544:	4551                	li	a0,20
d:\CH573FEVT\CH573F_TFT\obj/../src/TFTc/TFT_init.c:147
}
    1546:	0141                	addi	sp,sp,16
d:\CH573FEVT\CH573F_TFT\obj/../src/TFTc/TFT_init.c:146
	HAL_Delay(20);
    1548:	20002317          	auipc	t1,0x20002
    154c:	51c30067          	jr	1308(t1) # 20003a64 <mDelaymS>

00001550 <TFT_Init_ST7789v3>:
TFT_Init_ST7789v3():
d:\CH573FEVT\CH573F_TFT\obj/../src/TFTc/TFT_init.c:200
 * @param  htft TFTユ
 * @retval 
 * @note   ㄤST7789v3椹卞ㄧTFT灞骞锛240x240杈ㄧ
 */
void TFT_Init_ST7789v3(TFT_HandleTypeDef *htft)
{
    1550:	1141                	addi	sp,sp,-16
    1552:	c606                	sw	ra,12(sp)
    1554:	c422                	sw	s0,8(sp)
    1556:	842a                	mv	s0,a0
d:\CH573FEVT\CH573F_TFT\obj/../src/TFTc/TFT_init.c:202
	// 1. 濮搴灞IO锛GPIO/SPI绛锛
	TFT_IO_Init(htft);
    1558:	29b5                	jal	19d4 <TFT_IO_Init>
d:\CH573FEVT\CH573F_TFT\obj/../src/TFTc/TFT_init.c:205

	// 2. 纭浠跺浣娴绋
	TFT_Pin_RES_Set(htft, 0); // 浣澶浣寮
    155a:	4581                	li	a1,0
    155c:	8522                	mv	a0,s0
    155e:	2ca5                	jal	17d6 <TFT_Pin_RES_Set>
d:\CH573FEVT\CH573F_TFT\obj/../src/TFTc/TFT_init.c:206
	HAL_Delay(100);			  // 淇100ms浣靛钩
    1560:	06400513          	li	a0,100
    1564:	20002097          	auipc	ra,0x20002
    1568:	500080e7          	jalr	1280(ra) # 20003a64 <mDelaymS>
d:\CH573FEVT\CH573F_TFT\obj/../src/TFTc/TFT_init.c:207
	TFT_Pin_RES_Set(htft, 1); // 惧浣寮
    156c:	4585                	li	a1,1
    156e:	8522                	mv	a0,s0
    1570:	249d                	jal	17d6 <TFT_Pin_RES_Set>
d:\CH573FEVT\CH573F_TFT\obj/../src/TFTc/TFT_init.c:208
	HAL_Delay(100);			  // 绛寰澶浣瀹
    1572:	06400513          	li	a0,100
    1576:	20002097          	auipc	ra,0x20002
    157a:	4ee080e7          	jalr	1262(ra) # 20003a64 <mDelaymS>
d:\CH573FEVT\CH573F_TFT\obj/../src/TFTc/TFT_init.c:210

	TFT_Pin_BLK_Set(htft, 1); // 寮
    157e:	4585                	li	a1,1
    1580:	8522                	mv	a0,s0
    1582:	2e11                	jal	1896 <TFT_Pin_BLK_Set>
d:\CH573FEVT\CH573F_TFT\obj/../src/TFTc/TFT_init.c:211
	HAL_Delay(100);			  // 绋冲堕
    1584:	06400513          	li	a0,100
    1588:	20002097          	auipc	ra,0x20002
    158c:	4dc080e7          	jalr	1244(ra) # 20003a64 <mDelaymS>
d:\CH573FEVT\CH573F_TFT\obj/../src/TFTc/TFT_init.c:214

	// 3. 杞浠跺浣戒护
	TFT_Write_Command(htft, 0x01); // 杞浠跺浣
    1590:	4585                	li	a1,1
    1592:	8522                	mv	a0,s0
    1594:	2b01                	jal	1aa4 <TFT_Write_Command>
d:\CH573FEVT\CH573F_TFT\obj/../src/TFTc/TFT_init.c:215
	HAL_Delay(120);				   // 绛寰澶浣瀹
    1596:	07800513          	li	a0,120
    159a:	20002097          	auipc	ra,0x20002
    159e:	4ca080e7          	jalr	1226(ra) # 20003a64 <mDelaymS>
d:\CH573FEVT\CH573F_TFT\obj/../src/TFTc/TFT_init.c:218

	// 4. 虹＄妯″
	TFT_Write_Command(htft, 0x11); // 虹＄妯″(Sleep OUT)
    15a2:	45c5                	li	a1,17
    15a4:	8522                	mv	a0,s0
    15a6:	29fd                	jal	1aa4 <TFT_Write_Command>
d:\CH573FEVT\CH573F_TFT\obj/../src/TFTc/TFT_init.c:219
	HAL_Delay(120);				   // 绛寰ら瀹
    15a8:	07800513          	li	a0,120
    15ac:	20002097          	auipc	ra,0x20002
    15b0:	4b8080e7          	jalr	1208(ra) # 20003a64 <mDelaymS>
d:\CH573FEVT\CH573F_TFT\obj/../src/TFTc/TFT_init.c:222

	// 5. 璁剧疆灞骞剧ず瑰
	TFT_Set_Direction(htft, htft->display_direction);
    15b4:	02e44583          	lbu	a1,46(s0)
    15b8:	8522                	mv	a0,s0
    15ba:	3125                	jal	11e2 <TFT_Set_Direction>
d:\CH573FEVT\CH573F_TFT\obj/../src/TFTc/TFT_init.c:225

	// 6. 璁剧疆绱煎涓16浣RGB565
	TFT_Write_Command(htft, 0x3A); // 绱煎璁剧疆戒护
    15bc:	8522                	mv	a0,s0
    15be:	03a00593          	li	a1,58
    15c2:	21cd                	jal	1aa4 <TFT_Write_Command>
d:\CH573FEVT\CH573F_TFT\obj/../src/TFTc/TFT_init.c:226
	TFT_Write_Data8(htft, 0x05);   // 0x05琛ㄧず16浣/pixel
    15c4:	8522                	mv	a0,s0
    15c6:	4595                	li	a1,5
    15c8:	2195                	jal	1a2c <TFT_Write_Data8>
d:\CH573FEVT\CH573F_TFT\obj/../src/TFTc/TFT_init.c:229

	// 7. 璁剧疆Porchу讹甯у姝ヤ俊凤
	TFT_Write_Command(htft, 0xB2); // Porch璁剧疆戒护
    15ca:	8522                	mv	a0,s0
    15cc:	0b200593          	li	a1,178
    15d0:	29d1                	jal	1aa4 <TFT_Write_Command>
d:\CH573FEVT\CH573F_TFT\obj/../src/TFTc/TFT_init.c:230
	TFT_Write_Data8(htft, 0x0C);   // 寤
    15d2:	8522                	mv	a0,s0
    15d4:	45b1                	li	a1,12
    15d6:	2999                	jal	1a2c <TFT_Write_Data8>
d:\CH573FEVT\CH573F_TFT\obj/../src/TFTc/TFT_init.c:231
	TFT_Write_Data8(htft, 0x0C);   // 寤
    15d8:	8522                	mv	a0,s0
    15da:	45b1                	li	a1,12
    15dc:	2981                	jal	1a2c <TFT_Write_Data8>
d:\CH573FEVT\CH573F_TFT\obj/../src/TFTc/TFT_init.c:232
	TFT_Write_Data8(htft, 0x00);   // 绌洪叉ā寮
    15de:	8522                	mv	a0,s0
    15e0:	4581                	li	a1,0
    15e2:	21a9                	jal	1a2c <TFT_Write_Data8>
d:\CH573FEVT\CH573F_TFT\obj/../src/TFTc/TFT_init.c:233
	TFT_Write_Data8(htft, 0x33);   // 琛姝
    15e4:	8522                	mv	a0,s0
    15e6:	03300593          	li	a1,51
    15ea:	2189                	jal	1a2c <TFT_Write_Data8>
d:\CH573FEVT\CH573F_TFT\obj/../src/TFTc/TFT_init.c:234
	TFT_Write_Data8(htft, 0x33);   // 甯у姝
    15ec:	8522                	mv	a0,s0
    15ee:	03300593          	li	a1,51
    15f2:	292d                	jal	1a2c <TFT_Write_Data8>
d:\CH573FEVT\CH573F_TFT\obj/../src/TFTc/TFT_init.c:237

	// 8. 璁剧疆Gateу
	TFT_Write_Command(htft, 0xB7); // Gateу跺戒护
    15f4:	8522                	mv	a0,s0
    15f6:	0b700593          	li	a1,183
    15fa:	216d                	jal	1aa4 <TFT_Write_Command>
d:\CH573FEVT\CH573F_TFT\obj/../src/TFTc/TFT_init.c:238
	TFT_Write_Data8(htft, 0x72);   // 蜂拌版
    15fc:	8522                	mv	a0,s0
    15fe:	07200593          	li	a1,114
    1602:	212d                	jal	1a2c <TFT_Write_Data8>
d:\CH573FEVT\CH573F_TFT\obj/../src/TFTc/TFT_init.c:241

	// 9. 璁剧疆VCOM靛
	TFT_Write_Command(htft, 0xBB); // VCOM璁剧疆
    1604:	8522                	mv	a0,s0
    1606:	0bb00593          	li	a1,187
    160a:	2969                	jal	1aa4 <TFT_Write_Command>
d:\CH573FEVT\CH573F_TFT\obj/../src/TFTc/TFT_init.c:242
	TFT_Write_Data8(htft, 0x3D);   // VCOM靛
    160c:	8522                	mv	a0,s0
    160e:	03d00593          	li	a1,61
    1612:	2929                	jal	1a2c <TFT_Write_Data8>
d:\CH573FEVT\CH573F_TFT\obj/../src/TFTc/TFT_init.c:245

	// 10. 璁剧疆LCMу
	TFT_Write_Command(htft, 0xC0); // LCMу跺戒护
    1614:	8522                	mv	a0,s0
    1616:	0c000593          	li	a1,192
    161a:	2169                	jal	1aa4 <TFT_Write_Command>
d:\CH573FEVT\CH573F_TFT\obj/../src/TFTc/TFT_init.c:246
	TFT_Write_Data8(htft, 0x2C);   // 蜂
    161c:	8522                	mv	a0,s0
    161e:	02c00593          	li	a1,44
    1622:	2129                	jal	1a2c <TFT_Write_Data8>
d:\CH573FEVT\CH573F_TFT\obj/../src/TFTc/TFT_init.c:249

	// 11. 璁剧疆VDVVRH戒护浣胯
	TFT_Write_Command(htft, 0xC2); // VDV/VRHу
    1624:	8522                	mv	a0,s0
    1626:	0c200593          	li	a1,194
    162a:	29ad                	jal	1aa4 <TFT_Write_Command>
d:\CH573FEVT\CH573F_TFT\obj/../src/TFTc/TFT_init.c:250
	TFT_Write_Data8(htft, 0x01);   // 浣胯
    162c:	8522                	mv	a0,s0
    162e:	4585                	li	a1,1
    1630:	2ef5                	jal	1a2c <TFT_Write_Data8>
d:\CH573FEVT\CH573F_TFT\obj/../src/TFTc/TFT_init.c:253

	// 12. 璁剧疆VRH靛
	TFT_Write_Command(htft, 0xC3); // VRH璁剧疆
    1632:	8522                	mv	a0,s0
    1634:	0c300593          	li	a1,195
    1638:	21b5                	jal	1aa4 <TFT_Write_Command>
d:\CH573FEVT\CH573F_TFT\obj/../src/TFTc/TFT_init.c:254
	TFT_Write_Data8(htft, 0x19);   // VRH靛
    163a:	8522                	mv	a0,s0
    163c:	45e5                	li	a1,25
    163e:	26fd                	jal	1a2c <TFT_Write_Data8>
d:\CH573FEVT\CH573F_TFT\obj/../src/TFTc/TFT_init.c:257

	// 13. 璁剧疆VDV靛
	TFT_Write_Command(htft, 0xC4); // VDV璁剧疆
    1640:	8522                	mv	a0,s0
    1642:	0c400593          	li	a1,196
    1646:	29b9                	jal	1aa4 <TFT_Write_Command>
d:\CH573FEVT\CH573F_TFT\obj/../src/TFTc/TFT_init.c:258
	TFT_Write_Data8(htft, 0x20);   // VDV靛
    1648:	8522                	mv	a0,s0
    164a:	02000593          	li	a1,32
    164e:	2ef9                	jal	1a2c <TFT_Write_Data8>
d:\CH573FEVT\CH573F_TFT\obj/../src/TFTc/TFT_init.c:261

	// 14. 璁剧疆姝ｅ父妯″涓甯ху
	TFT_Write_Command(htft, 0xC6); // 甯ху
    1650:	8522                	mv	a0,s0
    1652:	0c600593          	li	a1,198
    1656:	21b9                	jal	1aa4 <TFT_Write_Command>
d:\CH573FEVT\CH573F_TFT\obj/../src/TFTc/TFT_init.c:264

	// TFT_Write_Data8(htft, 0x00); // 119Hz锋扮
	TFT_Write_Data8(htft, 0x05); // 90Hz锋扮
    1658:	8522                	mv	a0,s0
    165a:	4595                	li	a1,5
    165c:	2ec1                	jal	1a2c <TFT_Write_Data8>
d:\CH573FEVT\CH573F_TFT\obj/../src/TFTc/TFT_init.c:268
	// TFT_Write_Data8(htft, 0x0F);   // 60Hz锋扮

	// 15. 璁剧疆垫у1
	TFT_Write_Command(htft, 0xD0); // 垫у1
    165e:	8522                	mv	a0,s0
    1660:	0d000593          	li	a1,208
    1664:	2181                	jal	1aa4 <TFT_Write_Command>
d:\CH573FEVT\CH573F_TFT\obj/../src/TFTc/TFT_init.c:269
	TFT_Write_Data8(htft, 0xA4);   // 1
    1666:	8522                	mv	a0,s0
    1668:	0a400593          	li	a1,164
    166c:	26c1                	jal	1a2c <TFT_Write_Data8>
d:\CH573FEVT\CH573F_TFT\obj/../src/TFTc/TFT_init.c:270
	TFT_Write_Data8(htft, 0xA1);   // 2
    166e:	8522                	mv	a0,s0
    1670:	0a100593          	li	a1,161
    1674:	2e65                	jal	1a2c <TFT_Write_Data8>
d:\CH573FEVT\CH573F_TFT\obj/../src/TFTc/TFT_init.c:273

	// 16. 璁剧疆Gateу2
	TFT_Write_Command(htft, 0xD6); // Gateу2
    1676:	8522                	mv	a0,s0
    1678:	0d600593          	li	a1,214
    167c:	2125                	jal	1aa4 <TFT_Write_Command>
d:\CH573FEVT\CH573F_TFT\obj/../src/TFTc/TFT_init.c:274
	TFT_Write_Data8(htft, 0xA1);   // ＄妯″涓Gate杈GND
    167e:	8522                	mv	a0,s0
    1680:	0a100593          	li	a1,161
    1684:	2665                	jal	1a2c <TFT_Write_Data8>
d:\CH573FEVT\CH573F_TFT\obj/../src/TFTc/TFT_init.c:277

	// 17. 姝ｆт冀椹℃
	TFT_Write_Command(htft, 0xE0); // 姝ｄ冀椹℃
    1686:	8522                	mv	a0,s0
    1688:	0e000593          	li	a1,224
    168c:	2921                	jal	1aa4 <TFT_Write_Command>
d:\CH573FEVT\CH573F_TFT\obj/../src/TFTc/TFT_init.c:278
	TFT_Write_Data8(htft, 0xD0);   // 浼介┈1
    168e:	8522                	mv	a0,s0
    1690:	0d000593          	li	a1,208
    1694:	2e61                	jal	1a2c <TFT_Write_Data8>
d:\CH573FEVT\CH573F_TFT\obj/../src/TFTc/TFT_init.c:279
	TFT_Write_Data8(htft, 0x04);   // 浼介┈2
    1696:	8522                	mv	a0,s0
    1698:	4591                	li	a1,4
    169a:	2e49                	jal	1a2c <TFT_Write_Data8>
d:\CH573FEVT\CH573F_TFT\obj/../src/TFTc/TFT_init.c:281
	/* 缁14涓浼介┈℃ｅ */
	TFT_Write_Data8(htft, 0x0D);
    169c:	8522                	mv	a0,s0
    169e:	45b5                	li	a1,13
    16a0:	2671                	jal	1a2c <TFT_Write_Data8>
d:\CH573FEVT\CH573F_TFT\obj/../src/TFTc/TFT_init.c:282
	TFT_Write_Data8(htft, 0x11);
    16a2:	8522                	mv	a0,s0
    16a4:	45c5                	li	a1,17
    16a6:	2659                	jal	1a2c <TFT_Write_Data8>
d:\CH573FEVT\CH573F_TFT\obj/../src/TFTc/TFT_init.c:283
	TFT_Write_Data8(htft, 0x13);
    16a8:	8522                	mv	a0,s0
    16aa:	45cd                	li	a1,19
    16ac:	2641                	jal	1a2c <TFT_Write_Data8>
d:\CH573FEVT\CH573F_TFT\obj/../src/TFTc/TFT_init.c:284
	TFT_Write_Data8(htft, 0x2B);
    16ae:	8522                	mv	a0,s0
    16b0:	02b00593          	li	a1,43
    16b4:	2ea5                	jal	1a2c <TFT_Write_Data8>
d:\CH573FEVT\CH573F_TFT\obj/../src/TFTc/TFT_init.c:285
	TFT_Write_Data8(htft, 0x3F);
    16b6:	8522                	mv	a0,s0
    16b8:	03f00593          	li	a1,63
    16bc:	2e85                	jal	1a2c <TFT_Write_Data8>
d:\CH573FEVT\CH573F_TFT\obj/../src/TFTc/TFT_init.c:286
	TFT_Write_Data8(htft, 0x54);
    16be:	8522                	mv	a0,s0
    16c0:	05400593          	li	a1,84
    16c4:	26a5                	jal	1a2c <TFT_Write_Data8>
d:\CH573FEVT\CH573F_TFT\obj/../src/TFTc/TFT_init.c:287
	TFT_Write_Data8(htft, 0x4C);
    16c6:	8522                	mv	a0,s0
    16c8:	04c00593          	li	a1,76
    16cc:	2685                	jal	1a2c <TFT_Write_Data8>
d:\CH573FEVT\CH573F_TFT\obj/../src/TFTc/TFT_init.c:288
	TFT_Write_Data8(htft, 0x18);
    16ce:	8522                	mv	a0,s0
    16d0:	45e1                	li	a1,24
    16d2:	2ea9                	jal	1a2c <TFT_Write_Data8>
d:\CH573FEVT\CH573F_TFT\obj/../src/TFTc/TFT_init.c:289
	TFT_Write_Data8(htft, 0x0D);
    16d4:	8522                	mv	a0,s0
    16d6:	45b5                	li	a1,13
    16d8:	2e91                	jal	1a2c <TFT_Write_Data8>
d:\CH573FEVT\CH573F_TFT\obj/../src/TFTc/TFT_init.c:290
	TFT_Write_Data8(htft, 0x0B);
    16da:	8522                	mv	a0,s0
    16dc:	45ad                	li	a1,11
    16de:	26b9                	jal	1a2c <TFT_Write_Data8>
d:\CH573FEVT\CH573F_TFT\obj/../src/TFTc/TFT_init.c:291
	TFT_Write_Data8(htft, 0x1F);
    16e0:	8522                	mv	a0,s0
    16e2:	45fd                	li	a1,31
    16e4:	26a1                	jal	1a2c <TFT_Write_Data8>
d:\CH573FEVT\CH573F_TFT\obj/../src/TFTc/TFT_init.c:292
	TFT_Write_Data8(htft, 0x23);
    16e6:	8522                	mv	a0,s0
    16e8:	02300593          	li	a1,35
    16ec:	2681                	jal	1a2c <TFT_Write_Data8>
d:\CH573FEVT\CH573F_TFT\obj/../src/TFTc/TFT_init.c:295

	// 18. 璐т冀椹℃
	TFT_Write_Command(htft, 0xE1); // 璐浼介┈℃
    16ee:	8522                	mv	a0,s0
    16f0:	0e100593          	li	a1,225
    16f4:	2e45                	jal	1aa4 <TFT_Write_Command>
d:\CH573FEVT\CH573F_TFT\obj/../src/TFTc/TFT_init.c:296
	TFT_Write_Data8(htft, 0xD0);   // 浼介┈1
    16f6:	8522                	mv	a0,s0
    16f8:	0d000593          	li	a1,208
    16fc:	2e05                	jal	1a2c <TFT_Write_Data8>
d:\CH573FEVT\CH573F_TFT\obj/../src/TFTc/TFT_init.c:297
	TFT_Write_Data8(htft, 0x04);   // 浼介┈2
    16fe:	8522                	mv	a0,s0
    1700:	4591                	li	a1,4
    1702:	262d                	jal	1a2c <TFT_Write_Data8>
d:\CH573FEVT\CH573F_TFT\obj/../src/TFTc/TFT_init.c:299
	/* 缁14涓浼介┈℃ｅ */
	TFT_Write_Data8(htft, 0x0C);
    1704:	8522                	mv	a0,s0
    1706:	45b1                	li	a1,12
    1708:	2615                	jal	1a2c <TFT_Write_Data8>
d:\CH573FEVT\CH573F_TFT\obj/../src/TFTc/TFT_init.c:300
	TFT_Write_Data8(htft, 0x11);
    170a:	8522                	mv	a0,s0
    170c:	45c5                	li	a1,17
    170e:	2e39                	jal	1a2c <TFT_Write_Data8>
d:\CH573FEVT\CH573F_TFT\obj/../src/TFTc/TFT_init.c:301
	TFT_Write_Data8(htft, 0x13);
    1710:	8522                	mv	a0,s0
    1712:	45cd                	li	a1,19
    1714:	2e21                	jal	1a2c <TFT_Write_Data8>
d:\CH573FEVT\CH573F_TFT\obj/../src/TFTc/TFT_init.c:302
	TFT_Write_Data8(htft, 0x2C);
    1716:	8522                	mv	a0,s0
    1718:	02c00593          	li	a1,44
    171c:	2e01                	jal	1a2c <TFT_Write_Data8>
d:\CH573FEVT\CH573F_TFT\obj/../src/TFTc/TFT_init.c:303
	TFT_Write_Data8(htft, 0x3F);
    171e:	8522                	mv	a0,s0
    1720:	03f00593          	li	a1,63
    1724:	2621                	jal	1a2c <TFT_Write_Data8>
d:\CH573FEVT\CH573F_TFT\obj/../src/TFTc/TFT_init.c:304
	TFT_Write_Data8(htft, 0x44);
    1726:	8522                	mv	a0,s0
    1728:	04400593          	li	a1,68
    172c:	2601                	jal	1a2c <TFT_Write_Data8>
d:\CH573FEVT\CH573F_TFT\obj/../src/TFTc/TFT_init.c:305
	TFT_Write_Data8(htft, 0x51);
    172e:	8522                	mv	a0,s0
    1730:	05100593          	li	a1,81
    1734:	2ce5                	jal	1a2c <TFT_Write_Data8>
d:\CH573FEVT\CH573F_TFT\obj/../src/TFTc/TFT_init.c:306
	TFT_Write_Data8(htft, 0x2F);
    1736:	8522                	mv	a0,s0
    1738:	02f00593          	li	a1,47
    173c:	2cc5                	jal	1a2c <TFT_Write_Data8>
d:\CH573FEVT\CH573F_TFT\obj/../src/TFTc/TFT_init.c:307
	TFT_Write_Data8(htft, 0x1F);
    173e:	8522                	mv	a0,s0
    1740:	45fd                	li	a1,31
    1742:	24ed                	jal	1a2c <TFT_Write_Data8>
d:\CH573FEVT\CH573F_TFT\obj/../src/TFTc/TFT_init.c:308
	TFT_Write_Data8(htft, 0x1F);
    1744:	8522                	mv	a0,s0
    1746:	45fd                	li	a1,31
    1748:	24d5                	jal	1a2c <TFT_Write_Data8>
d:\CH573FEVT\CH573F_TFT\obj/../src/TFTc/TFT_init.c:309
	TFT_Write_Data8(htft, 0x20);
    174a:	8522                	mv	a0,s0
    174c:	02000593          	li	a1,32
    1750:	2cf1                	jal	1a2c <TFT_Write_Data8>
d:\CH573FEVT\CH573F_TFT\obj/../src/TFTc/TFT_init.c:310
	TFT_Write_Data8(htft, 0x23);
    1752:	8522                	mv	a0,s0
    1754:	02300593          	li	a1,35
    1758:	2cd1                	jal	1a2c <TFT_Write_Data8>
d:\CH573FEVT\CH573F_TFT\obj/../src/TFTc/TFT_init.c:313

	// 19. 寮剧ず杞锛锛
	TFT_Write_Command(htft, 0x21); // 剧ず杞ON
    175a:	8522                	mv	a0,s0
    175c:	02100593          	li	a1,33
    1760:	2691                	jal	1aa4 <TFT_Write_Command>
d:\CH573FEVT\CH573F_TFT\obj/../src/TFTc/TFT_init.c:316

	// 20. 寮剧ず
	TFT_Write_Command(htft, 0x29); // 剧ずON
    1762:	8522                	mv	a0,s0
    1764:	02900593          	li	a1,41
    1768:	2e35                	jal	1aa4 <TFT_Write_Command>
d:\CH573FEVT\CH573F_TFT\obj/../src/TFTc/TFT_init.c:318
	HAL_Delay(20);				   // 绛寰剧ず绋冲
}
    176a:	4422                	lw	s0,8(sp)
    176c:	40b2                	lw	ra,12(sp)
d:\CH573FEVT\CH573F_TFT\obj/../src/TFTc/TFT_init.c:317
	HAL_Delay(20);				   // 绛寰剧ず绋冲
    176e:	4551                	li	a0,20
d:\CH573FEVT\CH573F_TFT\obj/../src/TFTc/TFT_init.c:318
}
    1770:	0141                	addi	sp,sp,16
d:\CH573FEVT\CH573F_TFT\obj/../src/TFTc/TFT_init.c:317
	HAL_Delay(20);				   // 绛寰剧ず绋冲
    1772:	20002317          	auipc	t1,0x20002
    1776:	2f230067          	jr	754(t1) # 20003a64 <mDelaymS>

0000177a <TFT_Wait_DMA_Transfer_Complete>:
TFT_Wait_DMA_Transfer_Complete():
d:\CH573FEVT\CH573F_TFT\obj/../src/TFTc/TFT_io.c:458
 * @retval 
 * @note   浠 DMA 妯″涓涓 DMA 浼杈姝ｅㄨ琛堕诲
 */
static void TFT_Wait_DMA_Transfer_Complete(TFT_HandleTypeDef *htft)
{
	if (htft == NULL)
    177a:	c909                	beqz	a0,178c <TFT_Wait_DMA_Transfer_Complete+0x12>
d:\CH573FEVT\CH573F_TFT\obj/../src/TFTc/TFT_io.c:462
		return;

	// 浠褰 DMA 琚ㄤ褰娲诲ㄧ DMA 浼杈舵瑕绛寰
	if (htft->is_dma_enabled)
    177c:	02c54783          	lbu	a5,44(a0)
    1780:	c791                	beqz	a5,178c <TFT_Wait_DMA_Transfer_Complete+0x12>
d:\CH573FEVT\CH573F_TFT\obj/../src/TFTc/TFT_io.c:464 (discriminator 1)
	{
		while (htft->is_dma_transfer_active)
    1782:	02d54783          	lbu	a5,45(a0)
    1786:	0ff7f793          	andi	a5,a5,255
    178a:	bfdd                	j	1780 <TFT_Wait_DMA_Transfer_Complete+0x6>
d:\CH573FEVT\CH573F_TFT\obj/../src/TFTc/TFT_io.c:472
			// 渚濡: osSemaphoreWait(spiDmaSemaphore, osWaitForever);
			// 浣跨 __WFI() 浠よ CPU 杩ヤ妯″绛寰涓
		}
	}
	// 濡 DMA ㄦ娌℃娲诲ㄧ浼杈锛姝ゅ芥扮宠
}
    178c:	8082                	ret

0000178e <TFT_Init_Instance>:
TFT_Init_Instance():
d:\CH573FEVT\CH573F_TFT\obj/../src/TFTc/TFT_io.c:45
	htft->buffer_size = TFT_BUFFER_SIZE;
    178e:	6785                	lui	a5,0x1
    1790:	80078793          	addi	a5,a5,-2048 # 800 <TFT_Draw_MultiPoint.part.0+0x2>
    1794:	d51c                	sw	a5,40(a0)
d:\CH573FEVT\CH573F_TFT\obj/../src/TFTc/TFT_io.c:50
	htft->display_direction = DISPLAY_DIRECTION;
    1796:	20000793          	li	a5,512
    179a:	02f51723          	sh	a5,46(a0)
d:\CH573FEVT\CH573F_TFT\obj/../src/TFTc/TFT_io.c:52
	htft->y_offset = TFT_Y_OFFSET;
    179e:	4785                	li	a5,1
d:\CH573FEVT\CH573F_TFT\obj/../src/TFTc/TFT_io.c:40
	htft->spi_handle = hspi;
    17a0:	c10c                	sw	a1,0(a0)
d:\CH573FEVT\CH573F_TFT\obj/../src/TFTc/TFT_io.c:41
	htft->cs_port = cs_port;
    17a2:	00c50223          	sb	a2,4(a0)
d:\CH573FEVT\CH573F_TFT\obj/../src/TFTc/TFT_io.c:42
	htft->cs_pin = cs_pin;
    17a6:	c514                	sw	a3,8(a0)
d:\CH573FEVT\CH573F_TFT\obj/../src/TFTc/TFT_io.c:47
	htft->tx_buffer = NULL; // 缁浼瀛
    17a8:	02052223          	sw	zero,36(a0)
d:\CH573FEVT\CH573F_TFT\obj/../src/TFTc/TFT_io.c:52
	htft->y_offset = TFT_Y_OFFSET;
    17ac:	02f50823          	sb	a5,48(a0)
d:\CH573FEVT\CH573F_TFT\obj/../src/TFTc/TFT_io.c:53
}
    17b0:	8082                	ret

000017b2 <TFT_Config_Pins>:
TFT_Config_Pins():
d:\CH573FEVT\CH573F_TFT\obj/../src/TFTc/TFT_io.c:71
	htft->dc_port = dc_port;
    17b2:	00b50623          	sb	a1,12(a0)
d:\CH573FEVT\CH573F_TFT\obj/../src/TFTc/TFT_io.c:72
	htft->dc_pin = dc_pin;
    17b6:	c910                	sw	a2,16(a0)
d:\CH573FEVT\CH573F_TFT\obj/../src/TFTc/TFT_io.c:73
	htft->res_port = res_port;
    17b8:	00d50a23          	sb	a3,20(a0)
d:\CH573FEVT\CH573F_TFT\obj/../src/TFTc/TFT_io.c:74
	htft->res_pin = res_pin;
    17bc:	cd18                	sw	a4,24(a0)
d:\CH573FEVT\CH573F_TFT\obj/../src/TFTc/TFT_io.c:75
	htft->bl_port = bl_port;
    17be:	00f50e23          	sb	a5,28(a0)
d:\CH573FEVT\CH573F_TFT\obj/../src/TFTc/TFT_io.c:76
	htft->bl_pin = bl_pin;
    17c2:	03052023          	sw	a6,32(a0)
d:\CH573FEVT\CH573F_TFT\obj/../src/TFTc/TFT_io.c:77
}
    17c6:	8082                	ret

000017c8 <TFT_Config_Display>:
TFT_Config_Display():
d:\CH573FEVT\CH573F_TFT\obj/../src/TFTc/TFT_io.c:91
	htft->display_direction = display_direction;
    17c8:	02b50723          	sb	a1,46(a0)
d:\CH573FEVT\CH573F_TFT\obj/../src/TFTc/TFT_io.c:92
	htft->x_offset = x_offset;
    17cc:	02c507a3          	sb	a2,47(a0)
d:\CH573FEVT\CH573F_TFT\obj/../src/TFTc/TFT_io.c:93
	htft->y_offset = y_offset;
    17d0:	02d50823          	sb	a3,48(a0)
d:\CH573FEVT\CH573F_TFT\obj/../src/TFTc/TFT_io.c:94
}
    17d4:	8082                	ret

000017d6 <TFT_Pin_RES_Set>:
TFT_Pin_RES_Set():
d:\CH573FEVT\CH573F_TFT\obj/../src/TFTc/TFT_io.c:128
	if (htft->res_port == 0)
    17d6:	01454703          	lbu	a4,20(a0)
    17da:	4d1c                	lw	a5,24(a0)
d:\CH573FEVT\CH573F_TFT\obj/../src/TFTc/TFT_io.c:131
			GPIOA_SetBits(htft->res_pin);
    17dc:	400016b7          	lui	a3,0x40001
d:\CH573FEVT\CH573F_TFT\obj/../src/TFTc/TFT_io.c:128
	if (htft->res_port == 0)
    17e0:	ef11                	bnez	a4,17fc <TFT_Pin_RES_Set+0x26>
d:\CH573FEVT\CH573F_TFT\obj/../src/TFTc/TFT_io.c:130
		if (level)
    17e2:	c599                	beqz	a1,17f0 <TFT_Pin_RES_Set+0x1a>
d:\CH573FEVT\CH573F_TFT\obj/../src/TFTc/TFT_io.c:131
			GPIOA_SetBits(htft->res_pin);
    17e4:	0a86a703          	lw	a4,168(a3) # 400010a8 <_eusrstack+0x1fff90a8>
    17e8:	8fd9                	or	a5,a5,a4
    17ea:	0af6a423          	sw	a5,168(a3)
    17ee:	8082                	ret
d:\CH573FEVT\CH573F_TFT\obj/../src/TFTc/TFT_io.c:133
			GPIOA_ResetBits(htft->res_pin);
    17f0:	0ac6a703          	lw	a4,172(a3)
    17f4:	8fd9                	or	a5,a5,a4
    17f6:	0af6a623          	sw	a5,172(a3)
    17fa:	8082                	ret
d:\CH573FEVT\CH573F_TFT\obj/../src/TFTc/TFT_io.c:137
		if (level)
    17fc:	c599                	beqz	a1,180a <TFT_Pin_RES_Set+0x34>
d:\CH573FEVT\CH573F_TFT\obj/../src/TFTc/TFT_io.c:138
			GPIOB_SetBits(htft->res_pin);
    17fe:	0c86a703          	lw	a4,200(a3)
    1802:	8fd9                	or	a5,a5,a4
    1804:	0cf6a423          	sw	a5,200(a3)
    1808:	8082                	ret
d:\CH573FEVT\CH573F_TFT\obj/../src/TFTc/TFT_io.c:140
			GPIOB_ResetBits(htft->res_pin);
    180a:	0cc6a703          	lw	a4,204(a3)
    180e:	8fd9                	or	a5,a5,a4
    1810:	0cf6a623          	sw	a5,204(a3)
d:\CH573FEVT\CH573F_TFT\obj/../src/TFTc/TFT_io.c:148
}
    1814:	8082                	ret

00001816 <TFT_Pin_DC_Set>:
TFT_Pin_DC_Set():
d:\CH573FEVT\CH573F_TFT\obj/../src/TFTc/TFT_io.c:160
	if (htft->dc_port == 0)
    1816:	00c54703          	lbu	a4,12(a0)
    181a:	491c                	lw	a5,16(a0)
d:\CH573FEVT\CH573F_TFT\obj/../src/TFTc/TFT_io.c:163
			GPIOA_SetBits(htft->dc_pin);
    181c:	400016b7          	lui	a3,0x40001
d:\CH573FEVT\CH573F_TFT\obj/../src/TFTc/TFT_io.c:160
	if (htft->dc_port == 0)
    1820:	ef11                	bnez	a4,183c <TFT_Pin_DC_Set+0x26>
d:\CH573FEVT\CH573F_TFT\obj/../src/TFTc/TFT_io.c:162
		if (level)
    1822:	c599                	beqz	a1,1830 <TFT_Pin_DC_Set+0x1a>
d:\CH573FEVT\CH573F_TFT\obj/../src/TFTc/TFT_io.c:163
			GPIOA_SetBits(htft->dc_pin);
    1824:	0a86a703          	lw	a4,168(a3) # 400010a8 <_eusrstack+0x1fff90a8>
    1828:	8fd9                	or	a5,a5,a4
    182a:	0af6a423          	sw	a5,168(a3)
    182e:	8082                	ret
d:\CH573FEVT\CH573F_TFT\obj/../src/TFTc/TFT_io.c:165
			GPIOA_ResetBits(htft->dc_pin);
    1830:	0ac6a703          	lw	a4,172(a3)
    1834:	8fd9                	or	a5,a5,a4
    1836:	0af6a623          	sw	a5,172(a3)
    183a:	8082                	ret
d:\CH573FEVT\CH573F_TFT\obj/../src/TFTc/TFT_io.c:169
		if (level)
    183c:	c599                	beqz	a1,184a <TFT_Pin_DC_Set+0x34>
d:\CH573FEVT\CH573F_TFT\obj/../src/TFTc/TFT_io.c:170
			GPIOB_SetBits(htft->dc_pin);
    183e:	0c86a703          	lw	a4,200(a3)
    1842:	8fd9                	or	a5,a5,a4
    1844:	0cf6a423          	sw	a5,200(a3)
    1848:	8082                	ret
d:\CH573FEVT\CH573F_TFT\obj/../src/TFTc/TFT_io.c:172
			GPIOB_ResetBits(htft->dc_pin);
    184a:	0cc6a703          	lw	a4,204(a3)
    184e:	8fd9                	or	a5,a5,a4
    1850:	0cf6a623          	sw	a5,204(a3)
d:\CH573FEVT\CH573F_TFT\obj/../src/TFTc/TFT_io.c:180
}
    1854:	8082                	ret

00001856 <TFT_Pin_CS_Set>:
TFT_Pin_CS_Set():
d:\CH573FEVT\CH573F_TFT\obj/../src/TFTc/TFT_io.c:192
	if (htft->cs_port == 0)
    1856:	00454703          	lbu	a4,4(a0)
    185a:	451c                	lw	a5,8(a0)
d:\CH573FEVT\CH573F_TFT\obj/../src/TFTc/TFT_io.c:195
			GPIOA_SetBits(htft->cs_pin);
    185c:	400016b7          	lui	a3,0x40001
d:\CH573FEVT\CH573F_TFT\obj/../src/TFTc/TFT_io.c:192
	if (htft->cs_port == 0)
    1860:	ef11                	bnez	a4,187c <TFT_Pin_CS_Set+0x26>
d:\CH573FEVT\CH573F_TFT\obj/../src/TFTc/TFT_io.c:194
		if (level)
    1862:	c599                	beqz	a1,1870 <TFT_Pin_CS_Set+0x1a>
d:\CH573FEVT\CH573F_TFT\obj/../src/TFTc/TFT_io.c:195
			GPIOA_SetBits(htft->cs_pin);
    1864:	0a86a703          	lw	a4,168(a3) # 400010a8 <_eusrstack+0x1fff90a8>
    1868:	8fd9                	or	a5,a5,a4
    186a:	0af6a423          	sw	a5,168(a3)
    186e:	8082                	ret
d:\CH573FEVT\CH573F_TFT\obj/../src/TFTc/TFT_io.c:197
			GPIOA_ResetBits(htft->cs_pin);
    1870:	0ac6a703          	lw	a4,172(a3)
    1874:	8fd9                	or	a5,a5,a4
    1876:	0af6a623          	sw	a5,172(a3)
    187a:	8082                	ret
d:\CH573FEVT\CH573F_TFT\obj/../src/TFTc/TFT_io.c:201
		if (level)
    187c:	c599                	beqz	a1,188a <TFT_Pin_CS_Set+0x34>
d:\CH573FEVT\CH573F_TFT\obj/../src/TFTc/TFT_io.c:202
			GPIOB_SetBits(htft->cs_pin);
    187e:	0c86a703          	lw	a4,200(a3)
    1882:	8fd9                	or	a5,a5,a4
    1884:	0cf6a423          	sw	a5,200(a3)
    1888:	8082                	ret
d:\CH573FEVT\CH573F_TFT\obj/../src/TFTc/TFT_io.c:204
			GPIOB_ResetBits(htft->cs_pin);
    188a:	0cc6a703          	lw	a4,204(a3)
    188e:	8fd9                	or	a5,a5,a4
    1890:	0cf6a623          	sw	a5,204(a3)
d:\CH573FEVT\CH573F_TFT\obj/../src/TFTc/TFT_io.c:212
}
    1894:	8082                	ret

00001896 <TFT_Pin_BLK_Set>:
TFT_Pin_BLK_Set():
d:\CH573FEVT\CH573F_TFT\obj/../src/TFTc/TFT_io.c:225
	if (htft->bl_port == 0)
    1896:	01c54703          	lbu	a4,28(a0)
    189a:	511c                	lw	a5,32(a0)
d:\CH573FEVT\CH573F_TFT\obj/../src/TFTc/TFT_io.c:228
			GPIOA_SetBits(htft->bl_pin);
    189c:	400016b7          	lui	a3,0x40001
d:\CH573FEVT\CH573F_TFT\obj/../src/TFTc/TFT_io.c:225
	if (htft->bl_port == 0)
    18a0:	ef11                	bnez	a4,18bc <TFT_Pin_BLK_Set+0x26>
d:\CH573FEVT\CH573F_TFT\obj/../src/TFTc/TFT_io.c:227
		if (level)
    18a2:	c599                	beqz	a1,18b0 <TFT_Pin_BLK_Set+0x1a>
d:\CH573FEVT\CH573F_TFT\obj/../src/TFTc/TFT_io.c:228
			GPIOA_SetBits(htft->bl_pin);
    18a4:	0a86a703          	lw	a4,168(a3) # 400010a8 <_eusrstack+0x1fff90a8>
    18a8:	8fd9                	or	a5,a5,a4
    18aa:	0af6a423          	sw	a5,168(a3)
    18ae:	8082                	ret
d:\CH573FEVT\CH573F_TFT\obj/../src/TFTc/TFT_io.c:230
			GPIOA_ResetBits(htft->bl_pin);
    18b0:	0ac6a703          	lw	a4,172(a3)
    18b4:	8fd9                	or	a5,a5,a4
    18b6:	0af6a623          	sw	a5,172(a3)
    18ba:	8082                	ret
d:\CH573FEVT\CH573F_TFT\obj/../src/TFTc/TFT_io.c:234
		if (level)
    18bc:	c599                	beqz	a1,18ca <TFT_Pin_BLK_Set+0x34>
d:\CH573FEVT\CH573F_TFT\obj/../src/TFTc/TFT_io.c:235
			GPIOB_SetBits(htft->bl_pin);
    18be:	0c86a703          	lw	a4,200(a3)
    18c2:	8fd9                	or	a5,a5,a4
    18c4:	0cf6a423          	sw	a5,200(a3)
    18c8:	8082                	ret
d:\CH573FEVT\CH573F_TFT\obj/../src/TFTc/TFT_io.c:237
			GPIOB_ResetBits(htft->bl_pin);
    18ca:	0cc6a703          	lw	a4,204(a3)
    18ce:	8fd9                	or	a5,a5,a4
    18d0:	0cf6a623          	sw	a5,204(a3)
d:\CH573FEVT\CH573F_TFT\obj/../src/TFTc/TFT_io.c:245
}
    18d4:	8082                	ret

000018d6 <TFT_SPI_Send>:
TFT_SPI_Send():
d:\CH573FEVT\CH573F_TFT\obj/../src/TFTc/TFT_io.c:311
	if (htft == NULL || htft->spi_handle == NULL || length == 0 || data_buffer == NULL)
    18d6:	c92d                	beqz	a0,1948 <TFT_SPI_Send+0x72>
d:\CH573FEVT\CH573F_TFT\obj/../src/TFTc/TFT_io.c:311 (discriminator 1)
    18d8:	411c                	lw	a5,0(a0)
d:\CH573FEVT\CH573F_TFT\obj/../src/TFTc/TFT_io.c:310 (discriminator 1)
{
    18da:	1101                	addi	sp,sp,-32
    18dc:	cc22                	sw	s0,24(sp)
    18de:	ce06                	sw	ra,28(sp)
    18e0:	ca26                	sw	s1,20(sp)
    18e2:	c84a                	sw	s2,16(sp)
    18e4:	c64e                	sw	s3,12(sp)
    18e6:	842a                	mv	s0,a0
d:\CH573FEVT\CH573F_TFT\obj/../src/TFTc/TFT_io.c:311 (discriminator 1)
	if (htft == NULL || htft->spi_handle == NULL || length == 0 || data_buffer == NULL)
    18e8:	cba9                	beqz	a5,193a <TFT_SPI_Send+0x64>
d:\CH573FEVT\CH573F_TFT\obj/../src/TFTc/TFT_io.c:311 (discriminator 2)
    18ea:	ca21                	beqz	a2,193a <TFT_SPI_Send+0x64>
d:\CH573FEVT\CH573F_TFT\obj/../src/TFTc/TFT_io.c:311 (discriminator 3)
    18ec:	c5b9                	beqz	a1,193a <TFT_SPI_Send+0x64>
    18ee:	89b6                	mv	s3,a3
    18f0:	8932                	mv	s2,a2
    18f2:	84ae                	mv	s1,a1
d:\CH573FEVT\CH573F_TFT\obj/../src/TFTc/TFT_io.c:314
	TFT_Wait_DMA_Transfer_Complete(htft); // 纭淇涓涓娆 DMA 浼杈 (濡) 宸插
    18f4:	3559                	jal	177a <TFT_Wait_DMA_Transfer_Complete>
d:\CH573FEVT\CH573F_TFT\obj/../src/TFTc/TFT_io.c:316
	TFT_Pin_DC_Set(htft, 1); // 璁剧疆涓烘版妯″
    18f6:	4585                	li	a1,1
    18f8:	8522                	mv	a0,s0
    18fa:	3f31                	jal	1816 <TFT_Pin_DC_Set>
d:\CH573FEVT\CH573F_TFT\obj/../src/TFTc/TFT_io.c:317
	TFT_Pin_CS_Set(htft, 0); // 浣锛寮濮浼杈
    18fc:	4581                	li	a1,0
    18fe:	8522                	mv	a0,s0
    1900:	3f99                	jal	1856 <TFT_Pin_CS_Set>
d:\CH573FEVT\CH573F_TFT\obj/../src/TFTc/TFT_io.c:319
	if (htft->is_dma_enabled) // 濡ㄤ DMA
    1902:	02c44783          	lbu	a5,44(s0)
    1906:	c78d                	beqz	a5,1930 <TFT_SPI_Send+0x5a>
d:\CH573FEVT\CH573F_TFT\obj/../src/TFTc/TFT_io.c:321
		htft->is_dma_transfer_active = 1; // 璁剧疆 DMA 蹇蹇
    1908:	4785                	li	a5,1
    190a:	02f406a3          	sb	a5,45(s0)
TFT_Platform_SPI_Transmit_DMA_Start():
d:\CH573FEVT\CH573F_TFT\obj/../src/TFTc/TFT_io.c:288
	SPI0_MasterDMATrans(pData, Size); // 浣跨ㄦSPI0 DMA浼杈褰跺杩涓芥版涓STM32DMA诲寮锛瑕跺娌涓
    190e:	85ca                	mv	a1,s2
    1910:	8526                	mv	a0,s1
    1912:	0f1000ef          	jal	ra,2202 <SPI0_MasterDMATrans>
TFT_SPI_Send():
d:\CH573FEVT\CH573F_TFT\obj/../src/TFTc/TFT_io.c:325
		if (wait_completion)
    1916:	02098263          	beqz	s3,193a <TFT_SPI_Send+0x64>
d:\CH573FEVT\CH573F_TFT\obj/../src/TFTc/TFT_io.c:327
			TFT_Wait_DMA_Transfer_Complete(htft); // 绛寰 DMA 瀹
    191a:	8522                	mv	a0,s0
    191c:	3db9                	jal	177a <TFT_Wait_DMA_Transfer_Complete>
d:\CH573FEVT\CH573F_TFT\obj/../src/TFTc/TFT_io.c:336
		TFT_Pin_CS_Set(htft, 1);														// 诲浼杈瀹绔虫楂
    191e:	8522                	mv	a0,s0
d:\CH573FEVT\CH573F_TFT\obj/../src/TFTc/TFT_io.c:338
}
    1920:	4462                	lw	s0,24(sp)
    1922:	40f2                	lw	ra,28(sp)
    1924:	44d2                	lw	s1,20(sp)
    1926:	4942                	lw	s2,16(sp)
    1928:	49b2                	lw	s3,12(sp)
d:\CH573FEVT\CH573F_TFT\obj/../src/TFTc/TFT_io.c:336
		TFT_Pin_CS_Set(htft, 1);														// 诲浼杈瀹绔虫楂
    192a:	4585                	li	a1,1
d:\CH573FEVT\CH573F_TFT\obj/../src/TFTc/TFT_io.c:338
}
    192c:	6105                	addi	sp,sp,32
d:\CH573FEVT\CH573F_TFT\obj/../src/TFTc/TFT_io.c:336
		TFT_Pin_CS_Set(htft, 1);														// 诲浼杈瀹绔虫楂
    192e:	b725                	j	1856 <TFT_Pin_CS_Set>
TFT_Platform_SPI_Transmit_Blocking():
d:\CH573FEVT\CH573F_TFT\obj/../src/TFTc/TFT_io.c:264
	SPI0_MasterDMATrans(pData, Size); // 浣跨ㄦSPI0 DMA浼杈瀹娴璇跺版DMA诲寮锛涓ㄨ跺棰
    1930:	85ca                	mv	a1,s2
    1932:	8526                	mv	a0,s1
    1934:	0cf000ef          	jal	ra,2202 <SPI0_MasterDMATrans>
    1938:	b7dd                	j	191e <TFT_SPI_Send+0x48>
TFT_SPI_Send():
d:\CH573FEVT\CH573F_TFT\obj/../src/TFTc/TFT_io.c:338
}
    193a:	40f2                	lw	ra,28(sp)
    193c:	4462                	lw	s0,24(sp)
    193e:	44d2                	lw	s1,20(sp)
    1940:	4942                	lw	s2,16(sp)
    1942:	49b2                	lw	s3,12(sp)
    1944:	6105                	addi	sp,sp,32
    1946:	8082                	ret
    1948:	8082                	ret

0000194a <TFT_Flush_Buffer>:
TFT_Flush_Buffer():
d:\CH573FEVT\CH573F_TFT\obj/../src/TFTc/TFT_io.c:373
	if (htft == NULL || htft->tx_buffer == NULL || htft->buffer_write_index == 0)
    194a:	c115                	beqz	a0,196e <TFT_Flush_Buffer+0x24>
    194c:	86ae                	mv	a3,a1
d:\CH573FEVT\CH573F_TFT\obj/../src/TFTc/TFT_io.c:373 (discriminator 1)
    194e:	514c                	lw	a1,36(a0)
d:\CH573FEVT\CH573F_TFT\obj/../src/TFTc/TFT_io.c:372 (discriminator 1)
{
    1950:	1141                	addi	sp,sp,-16
    1952:	c422                	sw	s0,8(sp)
    1954:	c606                	sw	ra,12(sp)
    1956:	842a                	mv	s0,a0
d:\CH573FEVT\CH573F_TFT\obj/../src/TFTc/TFT_io.c:373 (discriminator 1)
	if (htft == NULL || htft->tx_buffer == NULL || htft->buffer_write_index == 0)
    1958:	c599                	beqz	a1,1966 <TFT_Flush_Buffer+0x1c>
d:\CH573FEVT\CH573F_TFT\obj/../src/TFTc/TFT_io.c:373 (discriminator 2)
    195a:	02a55603          	lhu	a2,42(a0)
    195e:	c601                	beqz	a2,1966 <TFT_Flush_Buffer+0x1c>
d:\CH573FEVT\CH573F_TFT\obj/../src/TFTc/TFT_io.c:377
	TFT_SPI_Send(htft, htft->tx_buffer, htft->buffer_write_index, wait_completion);
    1960:	3f9d                	jal	18d6 <TFT_SPI_Send>
d:\CH573FEVT\CH573F_TFT\obj/../src/TFTc/TFT_io.c:379
	htft->buffer_write_index = 0; // 缃缂插虹储寮
    1962:	02041523          	sh	zero,42(s0)
d:\CH573FEVT\CH573F_TFT\obj/../src/TFTc/TFT_io.c:380
}
    1966:	40b2                	lw	ra,12(sp)
    1968:	4422                	lw	s0,8(sp)
    196a:	0141                	addi	sp,sp,16
    196c:	8082                	ret
    196e:	8082                	ret

00001970 <TFT_Buffer_Write16>:
TFT_Buffer_Write16():
d:\CH573FEVT\CH573F_TFT\obj/../src/TFTc/TFT_io.c:351
	if (htft == NULL || htft->tx_buffer == NULL)
    1970:	cd29                	beqz	a0,19ca <TFT_Buffer_Write16+0x5a>
d:\CH573FEVT\CH573F_TFT\obj/../src/TFTc/TFT_io.c:351 (discriminator 1)
    1972:	515c                	lw	a5,36(a0)
d:\CH573FEVT\CH573F_TFT\obj/../src/TFTc/TFT_io.c:349 (discriminator 1)
{
    1974:	1141                	addi	sp,sp,-16
    1976:	c422                	sw	s0,8(sp)
    1978:	c606                	sw	ra,12(sp)
    197a:	c226                	sw	s1,4(sp)
    197c:	842a                	mv	s0,a0
d:\CH573FEVT\CH573F_TFT\obj/../src/TFTc/TFT_io.c:351 (discriminator 1)
	if (htft == NULL || htft->tx_buffer == NULL)
    197e:	c3a9                	beqz	a5,19c0 <TFT_Buffer_Write16+0x50>
d:\CH573FEVT\CH573F_TFT\obj/../src/TFTc/TFT_io.c:355
	if (htft->buffer_write_index >= htft->buffer_size - 1)
    1980:	02855783          	lhu	a5,40(a0)
    1984:	02a55703          	lhu	a4,42(a0)
    1988:	84ae                	mv	s1,a1
    198a:	17fd                	addi	a5,a5,-1
    198c:	00f74463          	blt	a4,a5,1994 <TFT_Buffer_Write16+0x24>
d:\CH573FEVT\CH573F_TFT\obj/../src/TFTc/TFT_io.c:357
		TFT_Flush_Buffer(htft, 0); // 缂插烘弧锛锋扮插猴涓绛寰瀹
    1990:	4581                	li	a1,0
    1992:	3f65                	jal	194a <TFT_Flush_Buffer>
d:\CH573FEVT\CH573F_TFT\obj/../src/TFTc/TFT_io.c:361
	htft->tx_buffer[htft->buffer_write_index++] = (data >> 8) & 0xFF; // 楂瀛
    1994:	02a45703          	lhu	a4,42(s0)
    1998:	505c                	lw	a5,36(s0)
    199a:	00170693          	addi	a3,a4,1
    199e:	02d41523          	sh	a3,42(s0)
    19a2:	97ba                	add	a5,a5,a4
    19a4:	0084d713          	srli	a4,s1,0x8
    19a8:	00e78023          	sb	a4,0(a5)
d:\CH573FEVT\CH573F_TFT\obj/../src/TFTc/TFT_io.c:362
	htft->tx_buffer[htft->buffer_write_index++] = data & 0xFF;		  // 浣瀛
    19ac:	02a45703          	lhu	a4,42(s0)
    19b0:	505c                	lw	a5,36(s0)
    19b2:	00170693          	addi	a3,a4,1
    19b6:	02d41523          	sh	a3,42(s0)
    19ba:	97ba                	add	a5,a5,a4
    19bc:	00978023          	sb	s1,0(a5)
d:\CH573FEVT\CH573F_TFT\obj/../src/TFTc/TFT_io.c:363
}
    19c0:	40b2                	lw	ra,12(sp)
    19c2:	4422                	lw	s0,8(sp)
    19c4:	4492                	lw	s1,4(sp)
    19c6:	0141                	addi	sp,sp,16
    19c8:	8082                	ret
    19ca:	8082                	ret

000019cc <TFT_Reset_Buffer>:
TFT_Reset_Buffer():
d:\CH573FEVT\CH573F_TFT\obj/../src/TFTc/TFT_io.c:389
	if (htft == NULL)
    19cc:	c119                	beqz	a0,19d2 <TFT_Reset_Buffer+0x6>
d:\CH573FEVT\CH573F_TFT\obj/../src/TFTc/TFT_io.c:392
	htft->buffer_write_index = 0;
    19ce:	02051523          	sh	zero,42(a0)
d:\CH573FEVT\CH573F_TFT\obj/../src/TFTc/TFT_io.c:393
}
    19d2:	8082                	ret

000019d4 <TFT_IO_Init>:
TFT_IO_Init():
d:\CH573FEVT\CH573F_TFT\obj/../src/TFTc/TFT_io.c:402
	if (htft == NULL || htft->spi_handle == NULL)
    19d4:	c939                	beqz	a0,1a2a <TFT_IO_Init+0x56>
d:\CH573FEVT\CH573F_TFT\obj/../src/TFTc/TFT_io.c:402 (discriminator 1)
    19d6:	411c                	lw	a5,0(a0)
    19d8:	cba9                	beqz	a5,1a2a <TFT_IO_Init+0x56>
d:\CH573FEVT\CH573F_TFT\obj/../src/TFTc/TFT_io.c:409
	if (htft->tx_buffer == NULL)
    19da:	515c                	lw	a5,36(a0)
d:\CH573FEVT\CH573F_TFT\obj/../src/TFTc/TFT_io.c:401
{
    19dc:	1141                	addi	sp,sp,-16
    19de:	c422                	sw	s0,8(sp)
    19e0:	c606                	sw	ra,12(sp)
    19e2:	842a                	mv	s0,a0
d:\CH573FEVT\CH573F_TFT\obj/../src/TFTc/TFT_io.c:409
	if (htft->tx_buffer == NULL)
    19e4:	c785                	beqz	a5,1a0c <TFT_IO_Init+0x38>
d:\CH573FEVT\CH573F_TFT\obj/../src/TFTc/TFT_io.c:432
	GPIOA_ModeCfg(GPIO_Pin_12 | GPIO_Pin_13 | GPIO_Pin_14, GPIO_ModeOut_PP_5mA); // 濮SPI0瀵瑰GPIO
    19e6:	458d                	li	a1,3
    19e8:	651d                	lui	a0,0x7
d:\CH573FEVT\CH573F_TFT\obj/../src/TFTc/TFT_io.c:419
	htft->buffer_write_index = 0; // 濮缂插虹储寮
    19ea:	02041523          	sh	zero,42(s0)
d:\CH573FEVT\CH573F_TFT\obj/../src/TFTc/TFT_io.c:432
	GPIOA_ModeCfg(GPIO_Pin_12 | GPIO_Pin_13 | GPIO_Pin_14, GPIO_ModeOut_PP_5mA); // 濮SPI0瀵瑰GPIO
    19ee:	696000ef          	jal	ra,2084 <GPIOA_ModeCfg>
d:\CH573FEVT\CH573F_TFT\obj/../src/TFTc/TFT_io.c:433
	SPI0_MasterDefInit();														 // 濮SPI0涓轰富妯″
    19f2:	7de000ef          	jal	ra,21d0 <SPI0_MasterDefInit>
TFT_Register_Device():
d:\CH573FEVT\CH573F_TFT\obj/../src/TFTc/TFT_io.c:106
		if (g_tft_handles[i] == NULL || g_tft_handles[i]->spi_handle == htft->spi_handle)
    19f6:	81018793          	addi	a5,gp,-2032 # 20004070 <_edata>
    19fa:	439c                	lw	a5,0(a5)
TFT_IO_Init():
d:\CH573FEVT\CH573F_TFT\obj/../src/TFTc/TFT_io.c:435
	htft->is_dma_enabled = 0; // 璇蜂瑕淇逛负1娌DMA诲寮锛宸茬TFT_Platform_SPI_Transmit_Blocking挎涓DMA浼杈
    19fc:	02040623          	sb	zero,44(s0)
d:\CH573FEVT\CH573F_TFT\obj/../src/TFTc/TFT_io.c:444
	htft->is_dma_transfer_active = 0; // 濮 DMA 浼杈舵蹇
    1a00:	020406a3          	sb	zero,45(s0)
TFT_Register_Device():
d:\CH573FEVT\CH573F_TFT\obj/../src/TFTc/TFT_io.c:106
		if (g_tft_handles[i] == NULL || g_tft_handles[i]->spi_handle == htft->spi_handle)
    1a04:	ef91                	bnez	a5,1a20 <TFT_IO_Init+0x4c>
d:\CH573FEVT\CH573F_TFT\obj/../src/TFTc/TFT_io.c:108
			g_tft_handles[i] = htft;
    1a06:	8081a823          	sw	s0,-2032(gp) # 20004070 <_edata>
d:\CH573FEVT\CH573F_TFT\obj/../src/TFTc/TFT_io.c:109
			break;
    1a0a:	a039                	j	1a18 <TFT_IO_Init+0x44>
TFT_IO_Init():
d:\CH573FEVT\CH573F_TFT\obj/../src/TFTc/TFT_io.c:411
		htft->tx_buffer = (uint8_t *)malloc(htft->buffer_size);
    1a0c:	02855503          	lhu	a0,40(a0) # 7028 <_data_lma+0x2ddc>
    1a10:	137000ef          	jal	ra,2346 <malloc>
    1a14:	d048                	sw	a0,36(s0)
d:\CH573FEVT\CH573F_TFT\obj/../src/TFTc/TFT_io.c:412
		if (htft->tx_buffer == NULL)
    1a16:	f961                	bnez	a0,19e6 <TFT_IO_Init+0x12>
d:\CH573FEVT\CH573F_TFT\obj/../src/TFTc/TFT_io.c:448
}
    1a18:	40b2                	lw	ra,12(sp)
    1a1a:	4422                	lw	s0,8(sp)
    1a1c:	0141                	addi	sp,sp,16
    1a1e:	8082                	ret
TFT_Register_Device():
d:\CH573FEVT\CH573F_TFT\obj/../src/TFTc/TFT_io.c:106
		if (g_tft_handles[i] == NULL || g_tft_handles[i]->spi_handle == htft->spi_handle)
    1a20:	4398                	lw	a4,0(a5)
    1a22:	401c                	lw	a5,0(s0)
    1a24:	fef71ae3          	bne	a4,a5,1a18 <TFT_IO_Init+0x44>
    1a28:	bff9                	j	1a06 <TFT_IO_Init+0x32>
    1a2a:	8082                	ret

00001a2c <TFT_Write_Data8>:
TFT_Write_Data8():
d:\CH573FEVT\CH573F_TFT\obj/../src/TFTc/TFT_io.c:483
 * @retval 
 * @note   姝ゅ芥版绘浣跨ㄩ诲寮 SPI 浼杈锛骞跺瀹ㄥ DC 寮宸茶句负版妯″
 *         甯稿ㄥ戒护璋锛ㄤ戒护般
 */
void TFT_Write_Data8(TFT_HandleTypeDef *htft, uint8_t data)
{
    1a2c:	1101                	addi	sp,sp,-32
    1a2e:	ce06                	sw	ra,28(sp)
    1a30:	cc22                	sw	s0,24(sp)
    1a32:	00b107a3          	sb	a1,15(sp)
d:\CH573FEVT\CH573F_TFT\obj/../src/TFTc/TFT_io.c:484
	if (htft == NULL || htft->spi_handle == NULL)
    1a36:	c11d                	beqz	a0,1a5c <TFT_Write_Data8+0x30>
d:\CH573FEVT\CH573F_TFT\obj/../src/TFTc/TFT_io.c:484 (discriminator 1)
    1a38:	411c                	lw	a5,0(a0)
    1a3a:	842a                	mv	s0,a0
    1a3c:	c385                	beqz	a5,1a5c <TFT_Write_Data8+0x30>
d:\CH573FEVT\CH573F_TFT\obj/../src/TFTc/TFT_io.c:487
		return;

	TFT_Wait_DMA_Transfer_Complete(htft); // 纭淇涔 DMA 浣瀹
    1a3e:	3b35                	jal	177a <TFT_Wait_DMA_Transfer_Complete>
d:\CH573FEVT\CH573F_TFT\obj/../src/TFTc/TFT_io.c:488
	TFT_Pin_DC_Set(htft, 1);			  // 纭淇版妯″
    1a40:	4585                	li	a1,1
    1a42:	8522                	mv	a0,s0
    1a44:	3bc9                	jal	1816 <TFT_Pin_DC_Set>
d:\CH573FEVT\CH573F_TFT\obj/../src/TFTc/TFT_io.c:489
	TFT_Pin_CS_Set(htft, 0);			  // 涓
    1a46:	4581                	li	a1,0
    1a48:	8522                	mv	a0,s0
    1a4a:	3531                	jal	1856 <TFT_Pin_CS_Set>
TFT_Platform_SPI_Transmit_Blocking():
d:\CH573FEVT\CH573F_TFT\obj/../src/TFTc/TFT_io.c:264
	SPI0_MasterDMATrans(pData, Size); // 浣跨ㄦSPI0 DMA浼杈瀹娴璇跺版DMA诲寮锛涓ㄨ跺棰
    1a4c:	4585                	li	a1,1
    1a4e:	00f10513          	addi	a0,sp,15
    1a52:	7b0000ef          	jal	ra,2202 <SPI0_MasterDMATrans>
TFT_Write_Data8():
d:\CH573FEVT\CH573F_TFT\obj/../src/TFTc/TFT_io.c:494

	// 浣跨ㄥ钩版借薄诲寮涓瀛
	TFT_Platform_SPI_Transmit_Blocking(htft->spi_handle, &data, 1, 100);

	TFT_Pin_CS_Set(htft, 1); // 浼杈瀹楂 CS
    1a56:	4585                	li	a1,1
    1a58:	8522                	mv	a0,s0
    1a5a:	3bf5                	jal	1856 <TFT_Pin_CS_Set>
d:\CH573FEVT\CH573F_TFT\obj/../src/TFTc/TFT_io.c:495
}
    1a5c:	40f2                	lw	ra,28(sp)
    1a5e:	4462                	lw	s0,24(sp)
    1a60:	6105                	addi	sp,sp,32
    1a62:	8082                	ret

00001a64 <TFT_Write_Data16>:
TFT_Write_Data16():
d:\CH573FEVT\CH573F_TFT\obj/../src/TFTc/TFT_io.c:507
 * @note   姝ゅ芥版绘浣跨ㄩ诲寮 SPI 浼杈
 *         涓昏ㄤ缁跺涓规灏版锛涓缁杩缂插恒
 */
void TFT_Write_Data16(TFT_HandleTypeDef *htft, uint16_t data)
{
	if (htft == NULL || htft->spi_handle == NULL)
    1a64:	cd1d                	beqz	a0,1aa2 <TFT_Write_Data16+0x3e>
d:\CH573FEVT\CH573F_TFT\obj/../src/TFTc/TFT_io.c:507 (discriminator 1)
    1a66:	411c                	lw	a5,0(a0)
d:\CH573FEVT\CH573F_TFT\obj/../src/TFTc/TFT_io.c:506 (discriminator 1)
{
    1a68:	1101                	addi	sp,sp,-32
    1a6a:	cc22                	sw	s0,24(sp)
    1a6c:	ce06                	sw	ra,28(sp)
    1a6e:	842a                	mv	s0,a0
d:\CH573FEVT\CH573F_TFT\obj/../src/TFTc/TFT_io.c:507 (discriminator 1)
	if (htft == NULL || htft->spi_handle == NULL)
    1a70:	c78d                	beqz	a5,1a9a <TFT_Write_Data16+0x36>
d:\CH573FEVT\CH573F_TFT\obj/../src/TFTc/TFT_io.c:511
		return;

	uint8_t spi_data[2];
	spi_data[0] = (data >> 8) & 0xFF; // 楂瀛 (澶х)
    1a72:	00859793          	slli	a5,a1,0x8
    1a76:	81a1                	srli	a1,a1,0x8
    1a78:	8ddd                	or	a1,a1,a5
    1a7a:	00b11623          	sh	a1,12(sp)
d:\CH573FEVT\CH573F_TFT\obj/../src/TFTc/TFT_io.c:514
	spi_data[1] = data & 0xFF;		  // 浣瀛

	TFT_Wait_DMA_Transfer_Complete(htft); // 纭淇涔 DMA 浣瀹
    1a7e:	39f5                	jal	177a <TFT_Wait_DMA_Transfer_Complete>
d:\CH573FEVT\CH573F_TFT\obj/../src/TFTc/TFT_io.c:515
	TFT_Pin_DC_Set(htft, 1);			  // 版妯″
    1a80:	4585                	li	a1,1
    1a82:	8522                	mv	a0,s0
    1a84:	3b49                	jal	1816 <TFT_Pin_DC_Set>
d:\CH573FEVT\CH573F_TFT\obj/../src/TFTc/TFT_io.c:516
	TFT_Pin_CS_Set(htft, 0);			  // 涓
    1a86:	4581                	li	a1,0
    1a88:	8522                	mv	a0,s0
    1a8a:	33f1                	jal	1856 <TFT_Pin_CS_Set>
TFT_Platform_SPI_Transmit_Blocking():
d:\CH573FEVT\CH573F_TFT\obj/../src/TFTc/TFT_io.c:264
	SPI0_MasterDMATrans(pData, Size); // 浣跨ㄦSPI0 DMA浼杈瀹娴璇跺版DMA诲寮锛涓ㄨ跺棰
    1a8c:	4589                	li	a1,2
    1a8e:	0068                	addi	a0,sp,12
    1a90:	772000ef          	jal	ra,2202 <SPI0_MasterDMATrans>
TFT_Write_Data16():
d:\CH573FEVT\CH573F_TFT\obj/../src/TFTc/TFT_io.c:521

	// 浣跨ㄥ钩版借薄诲寮 2 涓瀛
	TFT_Platform_SPI_Transmit_Blocking(htft->spi_handle, spi_data, 2, 100);

	TFT_Pin_CS_Set(htft, 1); // 浼杈瀹楂 CS
    1a94:	4585                	li	a1,1
    1a96:	8522                	mv	a0,s0
    1a98:	3b7d                	jal	1856 <TFT_Pin_CS_Set>
d:\CH573FEVT\CH573F_TFT\obj/../src/TFTc/TFT_io.c:522
}
    1a9a:	40f2                	lw	ra,28(sp)
    1a9c:	4462                	lw	s0,24(sp)
    1a9e:	6105                	addi	sp,sp,32
    1aa0:	8082                	ret
    1aa2:	8082                	ret

00001aa4 <TFT_Write_Command>:
TFT_Write_Command():
d:\CH573FEVT\CH573F_TFT\obj/../src/TFTc/TFT_io.c:533
 * @retval 
 * @note   戒护浼锋扮插 (诲绛寰)
 *         戒护韬浣跨ㄩ诲寮 SPI 浼杈
 */
void TFT_Write_Command(TFT_HandleTypeDef *htft, uint8_t command)
{
    1aa4:	1101                	addi	sp,sp,-32
    1aa6:	ce06                	sw	ra,28(sp)
    1aa8:	cc22                	sw	s0,24(sp)
    1aaa:	00b107a3          	sb	a1,15(sp)
d:\CH573FEVT\CH573F_TFT\obj/../src/TFTc/TFT_io.c:534
	if (htft == NULL || htft->spi_handle == NULL)
    1aae:	c505                	beqz	a0,1ad6 <TFT_Write_Command+0x32>
d:\CH573FEVT\CH573F_TFT\obj/../src/TFTc/TFT_io.c:534 (discriminator 1)
    1ab0:	411c                	lw	a5,0(a0)
    1ab2:	842a                	mv	s0,a0
    1ab4:	c38d                	beqz	a5,1ad6 <TFT_Write_Command+0x32>
d:\CH573FEVT\CH573F_TFT\obj/../src/TFTc/TFT_io.c:538
		return;

	// 戒护锛纭淇缂插轰腑版宸插瀹
	TFT_Flush_Buffer(htft, 1); // 绛寰缂插哄锋板
    1ab6:	4585                	li	a1,1
    1ab8:	3d49                	jal	194a <TFT_Flush_Buffer>
d:\CH573FEVT\CH573F_TFT\obj/../src/TFTc/TFT_io.c:542

	// 涓瑕娆¤ TFT_Wait_DMA_Transfer_Complete()锛涓 Flush_Buffer(1) 宸茬绛寰浜

	TFT_Pin_DC_Set(htft, 0); // 璁剧疆涓哄戒护妯″
    1aba:	4581                	li	a1,0
    1abc:	8522                	mv	a0,s0
    1abe:	3ba1                	jal	1816 <TFT_Pin_DC_Set>
d:\CH573FEVT\CH573F_TFT\obj/../src/TFTc/TFT_io.c:543
	TFT_Pin_CS_Set(htft, 0); // 涓
    1ac0:	4581                	li	a1,0
    1ac2:	8522                	mv	a0,s0
    1ac4:	3b49                	jal	1856 <TFT_Pin_CS_Set>
TFT_Platform_SPI_Transmit_Blocking():
d:\CH573FEVT\CH573F_TFT\obj/../src/TFTc/TFT_io.c:264
	SPI0_MasterDMATrans(pData, Size); // 浣跨ㄦSPI0 DMA浼杈瀹娴璇跺版DMA诲寮锛涓ㄨ跺棰
    1ac6:	4585                	li	a1,1
    1ac8:	00f10513          	addi	a0,sp,15
    1acc:	736000ef          	jal	ra,2202 <SPI0_MasterDMATrans>
TFT_Write_Command():
d:\CH573FEVT\CH573F_TFT\obj/../src/TFTc/TFT_io.c:548

	// 浣跨ㄥ钩版借薄诲寮戒护瀛
	TFT_Platform_SPI_Transmit_Blocking(htft->spi_handle, &command, 1, 100);

	TFT_Pin_CS_Set(htft, 1); // 戒护瀹绔虫楂 CS
    1ad0:	4585                	li	a1,1
    1ad2:	8522                	mv	a0,s0
    1ad4:	3349                	jal	1856 <TFT_Pin_CS_Set>
d:\CH573FEVT\CH573F_TFT\obj/../src/TFTc/TFT_io.c:549
}
    1ad6:	40f2                	lw	ra,28(sp)
    1ad8:	4462                	lw	s0,24(sp)
    1ada:	6105                	addi	sp,sp,32
    1adc:	8082                	ret

00001ade <TFT_Set_Address>:
TFT_Set_Address():
d:\CH573FEVT\CH573F_TFT\obj/../src/TFTc/TFT_io.c:563
 * @retval 
 * @note   璁剧疆锛缁版浼杈戒ユゅ哄锛绐ｅㄤ灞骞瑰涓浼ㄩ
 */
void TFT_Set_Address(TFT_HandleTypeDef *htft, uint16_t x_start, uint16_t y_start, uint16_t x_end, uint16_t y_end)
{
	if (htft == NULL)
    1ade:	cd45                	beqz	a0,1b96 <TFT_Set_Address+0xb8>
d:\CH573FEVT\CH573F_TFT\obj/../src/TFTc/TFT_io.c:562
{
    1ae0:	1101                	addi	sp,sp,-32
    1ae2:	ca26                	sw	s1,20(sp)
    1ae4:	84ae                	mv	s1,a1
d:\CH573FEVT\CH573F_TFT\obj/../src/TFTc/TFT_io.c:567
		return;

	// 璁剧疆板锛纭淇缂插轰腑版宸插瀹
	TFT_Flush_Buffer(htft, 1); // 绛寰缂插哄锋板
    1ae6:	4585                	li	a1,1
d:\CH573FEVT\CH573F_TFT\obj/../src/TFTc/TFT_io.c:562
{
    1ae8:	ce06                	sw	ra,28(sp)
    1aea:	cc22                	sw	s0,24(sp)
    1aec:	c84a                	sw	s2,16(sp)
    1aee:	842a                	mv	s0,a0
    1af0:	c64e                	sw	s3,12(sp)
    1af2:	c452                	sw	s4,8(sp)
    1af4:	893a                	mv	s2,a4
    1af6:	8a36                	mv	s4,a3
    1af8:	89b2                	mv	s3,a2
d:\CH573FEVT\CH573F_TFT\obj/../src/TFTc/TFT_io.c:567
	TFT_Flush_Buffer(htft, 1); // 绛寰缂插哄锋板
    1afa:	3d81                	jal	194a <TFT_Flush_Buffer>
d:\CH573FEVT\CH573F_TFT\obj/../src/TFTc/TFT_io.c:570

	// --- 璁剧疆板 (Column Address Set, CASET, 0x2A) ---
	TFT_Write_Command(htft, 0x2A);
    1afc:	02a00593          	li	a1,42
    1b00:	8522                	mv	a0,s0
    1b02:	374d                	jal	1aa4 <TFT_Write_Command>
d:\CH573FEVT\CH573F_TFT\obj/../src/TFTc/TFT_io.c:573

	// 规灞骞瑰疯剧疆板
	if (htft->display_direction == 0 || htft->display_direction == 2) // 0掳180掳
    1b04:	02e44783          	lbu	a5,46(s0)
    1b08:	0fd7f793          	andi	a5,a5,253
    1b0c:	e3ad                	bnez	a5,1b6e <TFT_Set_Address+0x90>
d:\CH573FEVT\CH573F_TFT\obj/../src/TFTc/TFT_io.c:575
	{
		TFT_Write_Data16(htft, x_start + htft->x_offset);
    1b0e:	02f44583          	lbu	a1,47(s0)
    1b12:	8522                	mv	a0,s0
    1b14:	95a6                	add	a1,a1,s1
    1b16:	05c2                	slli	a1,a1,0x10
    1b18:	81c1                	srli	a1,a1,0x10
    1b1a:	37a9                	jal	1a64 <TFT_Write_Data16>
d:\CH573FEVT\CH573F_TFT\obj/../src/TFTc/TFT_io.c:576
		TFT_Write_Data16(htft, x_end + htft->x_offset);
    1b1c:	02f44583          	lbu	a1,47(s0)
d:\CH573FEVT\CH573F_TFT\obj/../src/TFTc/TFT_io.c:581
	}
	else // 90掳270掳
	{
		TFT_Write_Data16(htft, x_start + htft->y_offset);
		TFT_Write_Data16(htft, x_end + htft->y_offset);
    1b20:	95d2                	add	a1,a1,s4
    1b22:	05c2                	slli	a1,a1,0x10
    1b24:	81c1                	srli	a1,a1,0x10
    1b26:	8522                	mv	a0,s0
    1b28:	3f35                	jal	1a64 <TFT_Write_Data16>
d:\CH573FEVT\CH573F_TFT\obj/../src/TFTc/TFT_io.c:585
	}

	// --- 璁剧疆琛板 (Set Row Address, 0x2B) ---
	TFT_Write_Command(htft, 0x2B);
    1b2a:	02b00593          	li	a1,43
    1b2e:	8522                	mv	a0,s0
    1b30:	3f95                	jal	1aa4 <TFT_Write_Command>
d:\CH573FEVT\CH573F_TFT\obj/../src/TFTc/TFT_io.c:588

	// 规灞骞瑰疯剧疆琛板
	if (htft->display_direction == 0 || htft->display_direction == 2) // 0掳180掳
    1b32:	02e44783          	lbu	a5,46(s0)
    1b36:	0fd7f793          	andi	a5,a5,253
    1b3a:	e7a1                	bnez	a5,1b82 <TFT_Set_Address+0xa4>
d:\CH573FEVT\CH573F_TFT\obj/../src/TFTc/TFT_io.c:590
	{
		TFT_Write_Data16(htft, y_start + htft->y_offset);
    1b3c:	03044583          	lbu	a1,48(s0)
    1b40:	8522                	mv	a0,s0
    1b42:	95ce                	add	a1,a1,s3
    1b44:	05c2                	slli	a1,a1,0x10
    1b46:	81c1                	srli	a1,a1,0x10
    1b48:	3f31                	jal	1a64 <TFT_Write_Data16>
d:\CH573FEVT\CH573F_TFT\obj/../src/TFTc/TFT_io.c:591
		TFT_Write_Data16(htft, y_end + htft->y_offset);
    1b4a:	03044583          	lbu	a1,48(s0)
d:\CH573FEVT\CH573F_TFT\obj/../src/TFTc/TFT_io.c:596
	}
	else // 90掳270掳
	{
		TFT_Write_Data16(htft, y_start + htft->x_offset);
		TFT_Write_Data16(htft, y_end + htft->x_offset);
    1b4e:	95ca                	add	a1,a1,s2
    1b50:	05c2                	slli	a1,a1,0x10
    1b52:	8522                	mv	a0,s0
    1b54:	81c1                	srli	a1,a1,0x10
    1b56:	3739                	jal	1a64 <TFT_Write_Data16>
d:\CH573FEVT\CH573F_TFT\obj/../src/TFTc/TFT_io.c:601
	}

	// ---  GRAM 戒护 (Memory Write, 0x2C) ---
	// 缁版灏琚ョ辨ょｅ涔 GRAM 哄
	TFT_Write_Command(htft, 0x2C);
    1b58:	8522                	mv	a0,s0
d:\CH573FEVT\CH573F_TFT\obj/../src/TFTc/TFT_io.c:602
}
    1b5a:	4462                	lw	s0,24(sp)
    1b5c:	40f2                	lw	ra,28(sp)
    1b5e:	44d2                	lw	s1,20(sp)
    1b60:	4942                	lw	s2,16(sp)
    1b62:	49b2                	lw	s3,12(sp)
    1b64:	4a22                	lw	s4,8(sp)
d:\CH573FEVT\CH573F_TFT\obj/../src/TFTc/TFT_io.c:601
	TFT_Write_Command(htft, 0x2C);
    1b66:	02c00593          	li	a1,44
d:\CH573FEVT\CH573F_TFT\obj/../src/TFTc/TFT_io.c:602
}
    1b6a:	6105                	addi	sp,sp,32
d:\CH573FEVT\CH573F_TFT\obj/../src/TFTc/TFT_io.c:601
	TFT_Write_Command(htft, 0x2C);
    1b6c:	bf25                	j	1aa4 <TFT_Write_Command>
d:\CH573FEVT\CH573F_TFT\obj/../src/TFTc/TFT_io.c:580
		TFT_Write_Data16(htft, x_start + htft->y_offset);
    1b6e:	03044583          	lbu	a1,48(s0)
    1b72:	8522                	mv	a0,s0
    1b74:	95a6                	add	a1,a1,s1
    1b76:	05c2                	slli	a1,a1,0x10
    1b78:	81c1                	srli	a1,a1,0x10
    1b7a:	35ed                	jal	1a64 <TFT_Write_Data16>
d:\CH573FEVT\CH573F_TFT\obj/../src/TFTc/TFT_io.c:581
		TFT_Write_Data16(htft, x_end + htft->y_offset);
    1b7c:	03044583          	lbu	a1,48(s0)
    1b80:	b745                	j	1b20 <TFT_Set_Address+0x42>
d:\CH573FEVT\CH573F_TFT\obj/../src/TFTc/TFT_io.c:595
		TFT_Write_Data16(htft, y_start + htft->x_offset);
    1b82:	02f44583          	lbu	a1,47(s0)
    1b86:	8522                	mv	a0,s0
    1b88:	95ce                	add	a1,a1,s3
    1b8a:	05c2                	slli	a1,a1,0x10
    1b8c:	81c1                	srli	a1,a1,0x10
    1b8e:	3dd9                	jal	1a64 <TFT_Write_Data16>
d:\CH573FEVT\CH573F_TFT\obj/../src/TFTc/TFT_io.c:596
		TFT_Write_Data16(htft, y_end + htft->x_offset);
    1b90:	02f44583          	lbu	a1,47(s0)
    1b94:	bf6d                	j	1b4e <TFT_Set_Address+0x70>
    1b96:	8082                	ret

00001b98 <TFT_RGB>:
TFT_RGB():
d:\CH573FEVT\CH573F_TFT\obj/../src/TFTc/TFT_io.c:617
 */
uint16_t TFT_RGB(uint8_t r, uint8_t g, uint8_t b)
{
	// 杞RGB888RGB565煎
	// R(5浣) G(6浣) B(5浣)
	return ((r & 0xF8) << 8) | ((g & 0xFC) << 3) | (b >> 3);
    1b98:	058e                	slli	a1,a1,0x3
    1b9a:	820d                	srli	a2,a2,0x3
    1b9c:	7e05f593          	andi	a1,a1,2016
    1ba0:	0522                	slli	a0,a0,0x8
    1ba2:	8dd1                	or	a1,a1,a2
    1ba4:	80057513          	andi	a0,a0,-2048
d:\CH573FEVT\CH573F_TFT\obj/../src/TFTc/TFT_io.c:618
}
    1ba8:	8d4d                	or	a0,a0,a1
    1baa:	8082                	ret

00001bac <TFT_Show_Char>:
TFT_Show_Char():
d:\CH573FEVT\CH573F_TFT\obj/../src/TFTc/TFT_text.c:112
 * @param  back_color 棰
 * @param  size       瀛浣澶у ( 8, 12, 16)
 * @param  mode       妯″ (0: 涓, 1: )
 */
void TFT_Show_Char(TFT_HandleTypeDef *htft, uint16_t x, uint16_t y, uint8_t chr, uint16_t color, uint16_t back_color, uint8_t size, uint8_t mode)
{
    1bac:	715d                	addi	sp,sp,-80
    1bae:	c4a2                	sw	s0,72(sp)
    1bb0:	c2a6                	sw	s1,68(sp)
    1bb2:	d65e                	sw	s7,44(sp)
    1bb4:	d462                	sw	s8,40(sp)
    1bb6:	8bbe                	mv	s7,a5
    1bb8:	c686                	sw	ra,76(sp)
    1bba:	c0ca                	sw	s2,64(sp)
    1bbc:	de4e                	sw	s3,60(sp)
    1bbe:	dc52                	sw	s4,56(sp)
    1bc0:	da56                	sw	s5,52(sp)
    1bc2:	d85a                	sw	s6,48(sp)
    1bc4:	d266                	sw	s9,36(sp)
    1bc6:	d06a                	sw	s10,32(sp)
    1bc8:	ce6e                	sw	s11,28(sp)
    1bca:	c63a                	sw	a4,12(sp)
d:\CH573FEVT\CH573F_TFT\obj/../src/TFTc/TFT_text.c:120
    uint8_t char_width, char_height;
    uint16_t char_index;
    uint16_t bytes_per_char;

    // 规瀛浣澶у╁瑰瀛搴
    if (size == 16)
    1bcc:	47c1                	li	a5,16
d:\CH573FEVT\CH573F_TFT\obj/../src/TFTc/TFT_text.c:112
{
    1bce:	84aa                	mv	s1,a0
    1bd0:	8436                	mv	s0,a3
    1bd2:	8c46                	mv	s8,a7
d:\CH573FEVT\CH573F_TFT\obj/../src/TFTc/TFT_text.c:120
    if (size == 16)
    1bd4:	0af80063          	beq	a6,a5,1c74 <TFT_Show_Char+0xc8>
d:\CH573FEVT\CH573F_TFT\obj/../src/TFTc/TFT_text.c:125
    {
        ascii_font = &afont16x8;
        bytes_per_char = 16; // 816琛锛姣2瀛锛16瀛
    }
    else if (size == 12)
    1bd8:	47b1                	li	a5,12
    1bda:	0af80363          	beq	a6,a5,1c80 <TFT_Show_Char+0xd4>
d:\CH573FEVT\CH573F_TFT\obj/../src/TFTc/TFT_text.c:134
    }
    else
    {
        ascii_font = &afont8x6;
        size = 8;
        bytes_per_char = 6; // 68琛锛姣1瀛锛6瀛
    1bde:	4d19                	li	s10,6
d:\CH573FEVT\CH573F_TFT\obj/../src/TFTc/TFT_text.c:132
        ascii_font = &afont8x6;
    1be0:	00002797          	auipc	a5,0x2
    1be4:	66078793          	addi	a5,a5,1632 # 4240 <afont8x6>
d:\CH573FEVT\CH573F_TFT\obj/../src/TFTc/TFT_text.c:141

    char_width = ascii_font->w;
    char_height = ascii_font->h;

    // 妫ュ绗ㄥ剧ず村
    if (chr < ' ' || chr > '~')
    1be8:	fe040713          	addi	a4,s0,-32
    1bec:	0ff77713          	andi	a4,a4,255
    1bf0:	05e00693          	li	a3,94
d:\CH573FEVT\CH573F_TFT\obj/../src/TFTc/TFT_text.c:137
    char_width = ascii_font->w;
    1bf4:	0017c983          	lbu	s3,1(a5)
d:\CH573FEVT\CH573F_TFT\obj/../src/TFTc/TFT_text.c:138
    char_height = ascii_font->h;
    1bf8:	0007c903          	lbu	s2,0(a5)
d:\CH573FEVT\CH573F_TFT\obj/../src/TFTc/TFT_text.c:141
    if (chr < ' ' || chr > '~')
    1bfc:	00e6f463          	bgeu	a3,a4,1c04 <TFT_Show_Char+0x58>
d:\CH573FEVT\CH573F_TFT\obj/../src/TFTc/TFT_text.c:143
    {
        chr = ' '; // 涓剧ず瀛绗剧ず涓虹┖
    1c00:	02000413          	li	s0,32
d:\CH573FEVT\CH573F_TFT\obj/../src/TFTc/TFT_text.c:146
    }

    char_index = chr - ' ';                                       // 璁＄瀛绗ㄥ搴涓绱㈠浣缃
    1c04:	1401                	addi	s0,s0,-32
d:\CH573FEVT\CH573F_TFT\obj/../src/TFTc/TFT_text.c:147
    glyph_data = ascii_font->chars + char_index * bytes_per_char; // 瀵瑰瀛妯℃版
    1c06:	0442                	slli	s0,s0,0x10
    1c08:	8041                	srli	s0,s0,0x10
    1c0a:	03a40433          	mul	s0,s0,s10
_TFT_Draw_Glyph():
d:\CH573FEVT\CH573F_TFT\obj/../src/TFTc/TFT_text.c:25
    uint8_t bytes_per_column = (height + 7) / 8; // 姣瀛帮8琛=1, 12琛=2锛
    1c0e:	00790a13          	addi	s4,s2,7
d:\CH573FEVT\CH573F_TFT\obj/../src/TFTc/TFT_text.c:27
    TFT_Set_Address(htft, x, y, x + width - 1, y + height - 1);
    1c12:	09c2                	slli	s3,s3,0x10
    1c14:	0942                	slli	s2,s2,0x10
    1c16:	fff60713          	addi	a4,a2,-1
    1c1a:	fff58693          	addi	a3,a1,-1
    1c1e:	0109d993          	srli	s3,s3,0x10
    1c22:	01095913          	srli	s2,s2,0x10
    1c26:	974a                	add	a4,a4,s2
    1c28:	96ce                	add	a3,a3,s3
d:\CH573FEVT\CH573F_TFT\obj/../src/TFTc/TFT_text.c:25
    uint8_t bytes_per_column = (height + 7) / 8; // 姣瀛帮8琛=1, 12琛=2锛
    1c2a:	403a5a13          	srai	s4,s4,0x3
d:\CH573FEVT\CH573F_TFT\obj/../src/TFTc/TFT_text.c:27
    TFT_Set_Address(htft, x, y, x + width - 1, y + height - 1);
    1c2e:	0742                	slli	a4,a4,0x10
    1c30:	06c2                	slli	a3,a3,0x10
TFT_Show_Char():
d:\CH573FEVT\CH573F_TFT\obj/../src/TFTc/TFT_text.c:147
    glyph_data = ascii_font->chars + char_index * bytes_per_char; // 瀵瑰瀛妯℃版
    1c32:	0047ac83          	lw	s9,4(a5)
_TFT_Draw_Glyph():
d:\CH573FEVT\CH573F_TFT\obj/../src/TFTc/TFT_text.c:27
    TFT_Set_Address(htft, x, y, x + width - 1, y + height - 1);
    1c36:	8341                	srli	a4,a4,0x10
d:\CH573FEVT\CH573F_TFT\obj/../src/TFTc/TFT_text.c:25
    uint8_t bytes_per_column = (height + 7) / 8; // 姣瀛帮8琛=1, 12琛=2锛
    1c38:	0ffa7793          	andi	a5,s4,255
d:\CH573FEVT\CH573F_TFT\obj/../src/TFTc/TFT_text.c:27
    TFT_Set_Address(htft, x, y, x + width - 1, y + height - 1);
    1c3c:	82c1                	srli	a3,a3,0x10
    1c3e:	8526                	mv	a0,s1
d:\CH573FEVT\CH573F_TFT\obj/../src/TFTc/TFT_text.c:25
    uint8_t bytes_per_column = (height + 7) / 8; // 姣瀛帮8琛=1, 12琛=2锛
    1c40:	c23e                	sw	a5,4(sp)
d:\CH573FEVT\CH573F_TFT\obj/../src/TFTc/TFT_text.c:27
    TFT_Set_Address(htft, x, y, x + width - 1, y + height - 1);
    1c42:	3d71                	jal	1ade <TFT_Set_Address>
d:\CH573FEVT\CH573F_TFT\obj/../src/TFTc/TFT_text.c:28
    TFT_Reset_Buffer(htft);
    1c44:	8526                	mv	a0,s1
    1c46:	9466                	add	s0,s0,s9
    1c48:	3351                	jal	19cc <TFT_Reset_Buffer>
d:\CH573FEVT\CH573F_TFT\obj/../src/TFTc/TFT_text.c:31
    for (col = 0; col < width; col++)
    1c4a:	4c81                	li	s9,0
d:\CH573FEVT\CH573F_TFT\obj/../src/TFTc/TFT_text.c:36
            for (row = 0; row < 8; row++)
    1c4c:	4da1                	li	s11,8
d:\CH573FEVT\CH573F_TFT\obj/../src/TFTc/TFT_text.c:31
    for (col = 0; col < width; col++)
    1c4e:	093ceb63          	bltu	s9,s3,1ce4 <TFT_Show_Char+0x138>
TFT_Show_Char():
d:\CH573FEVT\CH573F_TFT\obj/../src/TFTc/TFT_text.c:151

    // 璋ㄧ跺芥
    _TFT_Draw_Glyph(htft, x, y, glyph_data, char_width, char_height, color, back_color, mode);
}
    1c52:	4426                	lw	s0,72(sp)
    1c54:	40b6                	lw	ra,76(sp)
    1c56:	4906                	lw	s2,64(sp)
    1c58:	59f2                	lw	s3,60(sp)
    1c5a:	5a62                	lw	s4,56(sp)
    1c5c:	5ad2                	lw	s5,52(sp)
    1c5e:	5b42                	lw	s6,48(sp)
    1c60:	5bb2                	lw	s7,44(sp)
    1c62:	5c22                	lw	s8,40(sp)
    1c64:	5c92                	lw	s9,36(sp)
    1c66:	5d02                	lw	s10,32(sp)
    1c68:	4df2                	lw	s11,28(sp)
_TFT_Draw_Glyph():
d:\CH573FEVT\CH573F_TFT\obj/../src/TFTc/TFT_text.c:61
    TFT_Flush_Buffer(htft, 1);
    1c6a:	8526                	mv	a0,s1
TFT_Show_Char():
d:\CH573FEVT\CH573F_TFT\obj/../src/TFTc/TFT_text.c:151
}
    1c6c:	4496                	lw	s1,68(sp)
_TFT_Draw_Glyph():
d:\CH573FEVT\CH573F_TFT\obj/../src/TFTc/TFT_text.c:61
    TFT_Flush_Buffer(htft, 1);
    1c6e:	4585                	li	a1,1
TFT_Show_Char():
d:\CH573FEVT\CH573F_TFT\obj/../src/TFTc/TFT_text.c:151
}
    1c70:	6161                	addi	sp,sp,80
_TFT_Draw_Glyph():
d:\CH573FEVT\CH573F_TFT\obj/../src/TFTc/TFT_text.c:61
    TFT_Flush_Buffer(htft, 1);
    1c72:	b9e1                	j	194a <TFT_Flush_Buffer>
TFT_Show_Char():
d:\CH573FEVT\CH573F_TFT\obj/../src/TFTc/TFT_text.c:123
        bytes_per_char = 16; // 816琛锛姣2瀛锛16瀛
    1c74:	4d41                	li	s10,16
d:\CH573FEVT\CH573F_TFT\obj/../src/TFTc/TFT_text.c:122
        ascii_font = &afont16x8;
    1c76:	00002797          	auipc	a5,0x2
    1c7a:	5c278793          	addi	a5,a5,1474 # 4238 <afont16x8>
    1c7e:	b7ad                	j	1be8 <TFT_Show_Char+0x3c>
d:\CH573FEVT\CH573F_TFT\obj/../src/TFTc/TFT_text.c:128
        bytes_per_char = 12; // 612琛锛姣2瀛锛12瀛
    1c80:	4d31                	li	s10,12
d:\CH573FEVT\CH573F_TFT\obj/../src/TFTc/TFT_text.c:127
        ascii_font = &afont12x6;
    1c82:	00002797          	auipc	a5,0x2
    1c86:	5ae78793          	addi	a5,a5,1454 # 4230 <afont12x6>
    1c8a:	bfb9                	j	1be8 <TFT_Show_Char+0x3c>
_TFT_Draw_Glyph():
d:\CH573FEVT\CH573F_TFT\obj/../src/TFTc/TFT_text.c:35
            byte = glyph_data[col * bytes_per_column + byte_idx];
    1c8c:	015406b3          	add	a3,s0,s5
    1c90:	0006c783          	lbu	a5,0(a3)
    1c94:	003a9d13          	slli	s10,s5,0x3
    1c98:	0d42                	slli	s10,s10,0x10
    1c9a:	c43e                	sw	a5,8(sp)
d:\CH573FEVT\CH573F_TFT\obj/../src/TFTc/TFT_text.c:36
            for (row = 0; row < 8; row++)
    1c9c:	010d5d13          	srli	s10,s10,0x10
d:\CH573FEVT\CH573F_TFT\obj/../src/TFTc/TFT_text.c:35
            byte = glyph_data[col * bytes_per_column + byte_idx];
    1ca0:	4b01                	li	s6,0
d:\CH573FEVT\CH573F_TFT\obj/../src/TFTc/TFT_text.c:39
                if (pixel_row >= height)
    1ca2:	016d0633          	add	a2,s10,s6
    1ca6:	0642                	slli	a2,a2,0x10
    1ca8:	8241                	srli	a2,a2,0x10
    1caa:	01267d63          	bgeu	a2,s2,1cc4 <TFT_Show_Char+0x118>
d:\CH573FEVT\CH573F_TFT\obj/../src/TFTc/TFT_text.c:44
                bit = (byte >> row) & 0x01; // 瑰2锛LSBㄤ
    1cae:	47a2                	lw	a5,8(sp)
    1cb0:	4167d633          	sra	a2,a5,s6
d:\CH573FEVT\CH573F_TFT\obj/../src/TFTc/TFT_text.c:46
                if (bit)
    1cb4:	8a05                	andi	a2,a2,1
    1cb6:	c21d                	beqz	a2,1cdc <TFT_Show_Char+0x130>
d:\CH573FEVT\CH573F_TFT\obj/../src/TFTc/TFT_text.c:48
                    TFT_Buffer_Write16(htft, color); // 
    1cb8:	45b2                	lw	a1,12(sp)
d:\CH573FEVT\CH573F_TFT\obj/../src/TFTc/TFT_text.c:52
                    TFT_Buffer_Write16(htft, back_color); // 
    1cba:	8526                	mv	a0,s1
    1cbc:	3955                	jal	1970 <TFT_Buffer_Write16>
d:\CH573FEVT\CH573F_TFT\obj/../src/TFTc/TFT_text.c:57
                }
    1cbe:	0b05                	addi	s6,s6,1
d:\CH573FEVT\CH573F_TFT\obj/../src/TFTc/TFT_text.c:36
            for (row = 0; row < 8; row++)
    1cc0:	ffbb11e3          	bne	s6,s11,1ca2 <TFT_Show_Char+0xf6>
    1cc4:	0a85                	addi	s5,s5,1
d:\CH573FEVT\CH573F_TFT\obj/../src/TFTc/TFT_text.c:33
        for (uint8_t byte_idx = 0; byte_idx < bytes_per_column; byte_idx++)
    1cc6:	4792                	lw	a5,4(sp)
    1cc8:	0ffaf693          	andi	a3,s5,255
    1ccc:	fcf6e0e3          	bltu	a3,a5,1c8c <TFT_Show_Char+0xe0>
d:\CH573FEVT\CH573F_TFT\obj/../src/TFTc/TFT_text.c:31
    for (col = 0; col < width; col++)
    1cd0:	0c85                	addi	s9,s9,1
    1cd2:	0cc2                	slli	s9,s9,0x10
    1cd4:	010cdc93          	srli	s9,s9,0x10
    1cd8:	9452                	add	s0,s0,s4
    1cda:	bf95                	j	1c4e <TFT_Show_Char+0xa2>
d:\CH573FEVT\CH573F_TFT\obj/../src/TFTc/TFT_text.c:50
                else if (mode == 0)
    1cdc:	fe0c11e3          	bnez	s8,1cbe <TFT_Show_Char+0x112>
d:\CH573FEVT\CH573F_TFT\obj/../src/TFTc/TFT_text.c:52
                    TFT_Buffer_Write16(htft, back_color); // 
    1ce0:	85de                	mv	a1,s7
    1ce2:	bfe1                	j	1cba <TFT_Show_Char+0x10e>
d:\CH573FEVT\CH573F_TFT\obj/../src/TFTc/TFT_text.c:31
    for (col = 0; col < width; col++)
    1ce4:	4a81                	li	s5,0
    1ce6:	b7c5                	j	1cc6 <TFT_Show_Char+0x11a>

00001ce8 <TFT_Show_String>:
TFT_Show_String():
d:\CH573FEVT\CH573F_TFT\obj/../src/TFTc/TFT_text.c:78
{
    1ce8:	715d                	addi	sp,sp,-80
    1cea:	c4a2                	sw	s0,72(sp)
    1cec:	c2a6                	sw	s1,68(sp)
    1cee:	c0ca                	sw	s2,64(sp)
    1cf0:	de4e                	sw	s3,60(sp)
    1cf2:	dc52                	sw	s4,56(sp)
    1cf4:	da56                	sw	s5,52(sp)
    1cf6:	d85a                	sw	s6,48(sp)
    1cf8:	d65e                	sw	s7,44(sp)
    1cfa:	d462                	sw	s8,40(sp)
    1cfc:	d266                	sw	s9,36(sp)
    1cfe:	d06a                	sw	s10,32(sp)
    1d00:	ce6e                	sw	s11,28(sp)
    1d02:	c686                	sw	ra,76(sp)
    1d04:	89aa                	mv	s3,a0
    1d06:	842e                	mv	s0,a1
    1d08:	8a32                	mv	s4,a2
    1d0a:	84b6                	mv	s1,a3
    1d0c:	8aba                	mv	s5,a4
    1d0e:	8b3e                	mv	s6,a5
    1d10:	8942                	mv	s2,a6
    1d12:	8bc6                	mv	s7,a7
d:\CH573FEVT\CH573F_TFT\obj/../src/TFTc/TFT_text.c:88
        if (size == 16)
    1d14:	4c41                	li	s8,16
d:\CH573FEVT\CH573F_TFT\obj/../src/TFTc/TFT_text.c:90
        else if (size == 12)
    1d16:	4cb1                	li	s9,12
d:\CH573FEVT\CH573F_TFT\obj/../src/TFTc/TFT_text.c:93
            char_width = afont8x6.w;
    1d18:	00002d17          	auipc	s10,0x2
    1d1c:	529d4d03          	lbu	s10,1321(s10) # 4241 <afont8x6+0x1>
d:\CH573FEVT\CH573F_TFT\obj/../src/TFTc/TFT_text.c:91
            char_width = afont12x6.w;
    1d20:	00002d97          	auipc	s11,0x2
    1d24:	511dcd83          	lbu	s11,1297(s11) # 4231 <afont12x6+0x1>
d:\CH573FEVT\CH573F_TFT\obj/../src/TFTc/TFT_text.c:89
            char_width = afont16x8.w;
    1d28:	00002317          	auipc	t1,0x2
    1d2c:	51134303          	lbu	t1,1297(t1) # 4239 <afont16x8+0x1>
d:\CH573FEVT\CH573F_TFT\obj/../src/TFTc/TFT_text.c:82
    while (*str) // 瀛绗涓茬村伴 null 缁姝㈢
    1d30:	0004c683          	lbu	a3,0(s1)
    1d34:	e285                	bnez	a3,1d54 <TFT_Show_String+0x6c>
d:\CH573FEVT\CH573F_TFT\obj/../src/TFTc/TFT_text.c:98
}
    1d36:	40b6                	lw	ra,76(sp)
    1d38:	4426                	lw	s0,72(sp)
    1d3a:	4496                	lw	s1,68(sp)
    1d3c:	4906                	lw	s2,64(sp)
    1d3e:	59f2                	lw	s3,60(sp)
    1d40:	5a62                	lw	s4,56(sp)
    1d42:	5ad2                	lw	s5,52(sp)
    1d44:	5b42                	lw	s6,48(sp)
    1d46:	5bb2                	lw	s7,44(sp)
    1d48:	5c22                	lw	s8,40(sp)
    1d4a:	5c92                	lw	s9,36(sp)
    1d4c:	5d02                	lw	s10,32(sp)
    1d4e:	4df2                	lw	s11,28(sp)
    1d50:	6161                	addi	sp,sp,80
    1d52:	8082                	ret
d:\CH573FEVT\CH573F_TFT\obj/../src/TFTc/TFT_text.c:85
        TFT_Show_Char(htft, current_x, y, *str, color, back_color, size, mode);
    1d54:	87da                	mv	a5,s6
    1d56:	88de                	mv	a7,s7
    1d58:	884a                	mv	a6,s2
    1d5a:	8756                	mv	a4,s5
    1d5c:	8652                	mv	a2,s4
    1d5e:	85a2                	mv	a1,s0
    1d60:	854e                	mv	a0,s3
    1d62:	c61a                	sw	t1,12(sp)
    1d64:	35a1                	jal	1bac <TFT_Show_Char>
d:\CH573FEVT\CH573F_TFT\obj/../src/TFTc/TFT_text.c:88
        if (size == 16)
    1d66:	4332                	lw	t1,12(sp)
d:\CH573FEVT\CH573F_TFT\obj/../src/TFTc/TFT_text.c:89
            char_width = afont16x8.w;
    1d68:	879a                	mv	a5,t1
d:\CH573FEVT\CH573F_TFT\obj/../src/TFTc/TFT_text.c:88
        if (size == 16)
    1d6a:	01890663          	beq	s2,s8,1d76 <TFT_Show_String+0x8e>
d:\CH573FEVT\CH573F_TFT\obj/../src/TFTc/TFT_text.c:93
            char_width = afont8x6.w;
    1d6e:	87ea                	mv	a5,s10
d:\CH573FEVT\CH573F_TFT\obj/../src/TFTc/TFT_text.c:90
        else if (size == 12)
    1d70:	01991363          	bne	s2,s9,1d76 <TFT_Show_String+0x8e>
d:\CH573FEVT\CH573F_TFT\obj/../src/TFTc/TFT_text.c:91
            char_width = afont12x6.w;
    1d74:	87ee                	mv	a5,s11
d:\CH573FEVT\CH573F_TFT\obj/../src/TFTc/TFT_text.c:95
        current_x += char_width; // 绉诲ㄥ颁涓涓瀛绗浣缃
    1d76:	943e                	add	s0,s0,a5
    1d78:	0442                	slli	s0,s0,0x10
    1d7a:	8041                	srli	s0,s0,0x10
d:\CH573FEVT\CH573F_TFT\obj/../src/TFTc/TFT_text.c:96
        str++;                   // 涓涓涓瀛绗
    1d7c:	0485                	addi	s1,s1,1
    1d7e:	bf4d                	j	1d30 <TFT_Show_String+0x48>

00001d80 <main>:
main():
d:\CH573FEVT\CH573F_TFT\obj/../src/Main.c:48
/**
 * @fn     main
 * @brief   主函数
 * @return  none
 */
int main() {
    1d80:	7139                	addi	sp,sp,-64
d:\CH573FEVT\CH573F_TFT\obj/../src/Main.c:49
    SetSysClock (CLK_SOURCE_PLL_60MHz);
    1d82:	04800513          	li	a0,72
d:\CH573FEVT\CH573F_TFT\obj/../src/Main.c:48
int main() {
    1d86:	de06                	sw	ra,60(sp)
    1d88:	dc22                	sw	s0,56(sp)
    1d8a:	da26                	sw	s1,52(sp)
d:\CH573FEVT\CH573F_TFT\obj/../src/Main.c:53
    int i = 0;  // 计数器

    /* 配置串口调试 */
    GPIOA_SetBits (GPIO_Pin_9);
    1d8c:	40001437          	lui	s0,0x40001
d:\CH573FEVT\CH573F_TFT\obj/../src/Main.c:48
int main() {
    1d90:	d84a                	sw	s2,48(sp)
    1d92:	d64e                	sw	s3,44(sp)
    1d94:	d452                	sw	s4,40(sp)
    1d96:	d256                	sw	s5,36(sp)
    1d98:	d05a                	sw	s6,32(sp)
    1d9a:	ce5e                	sw	s7,28(sp)
    1d9c:	cc62                	sw	s8,24(sp)
d:\CH573FEVT\CH573F_TFT\obj/../src/Main.c:49
    SetSysClock (CLK_SOURCE_PLL_60MHz);
    1d9e:	20002097          	auipc	ra,0x20002
    1da2:	b1e080e7          	jalr	-1250(ra) # 200038bc <SetSysClock>
d:\CH573FEVT\CH573F_TFT\obj/../src/Main.c:53
    GPIOA_SetBits (GPIO_Pin_9);
    1da6:	0a842783          	lw	a5,168(s0) # 400010a8 <_eusrstack+0x1fff90a8>
d:\CH573FEVT\CH573F_TFT\obj/../src/Main.c:54
    GPIOA_ModeCfg (GPIO_Pin_8, GPIO_ModeIN_PU);
    1daa:	4585                	li	a1,1
    1dac:	10000513          	li	a0,256
d:\CH573FEVT\CH573F_TFT\obj/../src/Main.c:53
    GPIOA_SetBits (GPIO_Pin_9);
    1db0:	2007e793          	ori	a5,a5,512
    1db4:	0af42423          	sw	a5,168(s0)
d:\CH573FEVT\CH573F_TFT\obj/../src/Main.c:54
    GPIOA_ModeCfg (GPIO_Pin_8, GPIO_ModeIN_PU);
    1db8:	24f1                	jal	2084 <GPIOA_ModeCfg>
d:\CH573FEVT\CH573F_TFT\obj/../src/Main.c:55
    GPIOA_ModeCfg (GPIO_Pin_9, GPIO_ModeOut_PP_5mA);
    1dba:	458d                	li	a1,3
    1dbc:	20000513          	li	a0,512
    1dc0:	24d1                	jal	2084 <GPIOA_ModeCfg>
d:\CH573FEVT\CH573F_TFT\obj/../src/Main.c:56
    UART1_DefInit();
    1dc2:	2b89                	jal	2314 <UART1_DefInit>
d:\CH573FEVT\CH573F_TFT\obj/../src/Main.c:57
    PRINT ("Start @ChipID=%02X\n", R8_CHIP_ID);
    1dc4:	04144583          	lbu	a1,65(s0)
    1dc8:	00002517          	auipc	a0,0x2
    1dcc:	36050513          	addi	a0,a0,864 # 4128 <ascii_8x6+0x228>
d:\CH573FEVT\CH573F_TFT\obj/../src/Main.c:60
    /* 配置屏幕引脚，沁恒的单片机GPIOA和GPIOB操作函数是分开的。必须设置不然屏幕无法显示 */
    GPIOA_ModeCfg (TFT_CS_Pin, GPIO_ModeOut_PP_5mA);
    GPIOA_ModeCfg (TFT_RES_Pin, GPIO_ModeOut_PP_5mA);
    1dd0:	6405                	lui	s0,0x1
d:\CH573FEVT\CH573F_TFT\obj/../src/Main.c:57
    PRINT ("Start @ChipID=%02X\n", R8_CHIP_ID);
    1dd2:	6f0000ef          	jal	ra,24c2 <iprintf>
d:\CH573FEVT\CH573F_TFT\obj/../src/Main.c:59
    GPIOA_ModeCfg (TFT_CS_Pin, GPIO_ModeOut_PP_5mA);
    1dd6:	458d                	li	a1,3
    1dd8:	6505                	lui	a0,0x1
    1dda:	246d                	jal	2084 <GPIOA_ModeCfg>
d:\CH573FEVT\CH573F_TFT\obj/../src/Main.c:60
    GPIOA_ModeCfg (TFT_RES_Pin, GPIO_ModeOut_PP_5mA);
    1ddc:	80040513          	addi	a0,s0,-2048 # 800 <TFT_Draw_MultiPoint.part.0+0x2>
    1de0:	458d                	li	a1,3
    1de2:	244d                	jal	2084 <GPIOA_ModeCfg>
d:\CH573FEVT\CH573F_TFT\obj/../src/Main.c:61
    GPIOA_ModeCfg (TFT_DC_Pin, GPIO_ModeOut_PP_5mA);
    1de4:	458d                	li	a1,3
    1de6:	40000513          	li	a0,1024
    1dea:	2c69                	jal	2084 <GPIOA_ModeCfg>
d:\CH573FEVT\CH573F_TFT\obj/../src/Main.c:62
    GPIOB_ModeCfg (TFT_BLK_Pin, GPIO_ModeOut_PP_5mA);
    1dec:	458d                	li	a1,3
    1dee:	00400537          	lui	a0,0x400
    1df2:	2e25                	jal	212a <GPIOB_ModeCfg>
d:\CH573FEVT\CH573F_TFT\obj/../src/Main.c:64
    /* 屏幕设置 */
    TFT_Init_Instance (&htft1, &SPI0, TFT_CS_GPIO_Port, TFT_CS_Pin);
    1df4:	6685                	lui	a3,0x1
    1df6:	4601                	li	a2,0
    1df8:	81418593          	addi	a1,gp,-2028 # 20004074 <SPI0>
    1dfc:	82018513          	addi	a0,gp,-2016 # 20004080 <htft1>
    1e00:	98fff0ef          	jal	ra,178e <TFT_Init_Instance>
d:\CH573FEVT\CH573F_TFT\obj/../src/Main.c:65
    TFT_Config_Pins (&htft1, TFT_DC_GPIO_Port, TFT_DC_Pin, TFT_RES_GPIO_Port, TFT_RES_Pin, TFT_BLK_GPIO_Port, TFT_BLK_Pin);  // 必须手动设置引脚
    1e04:	80040713          	addi	a4,s0,-2048
    1e08:	00400837          	lui	a6,0x400
    1e0c:	4785                	li	a5,1
    1e0e:	4681                	li	a3,0
    1e10:	40000613          	li	a2,1024
    1e14:	4581                	li	a1,0
    1e16:	82018513          	addi	a0,gp,-2016 # 20004080 <htft1>
d:\CH573FEVT\CH573F_TFT\obj/../src/Main.c:80
            HEIGHT = 320;
            WIDTH = 240;
        } else {
            TFT_Config_Display (&htft1, 2, 2, 1);
            TFT_Init_ST7735S (&htft1);  // ST7735S屏幕初始化,右键进入tft_init.c查看更多屏幕的初始化函数
            TFT_Show_String (&htft1, 20, 20, "now ST7735S", WHITE, BLACK, 16, 0);
    1e1a:	6b41                	lui	s6,0x10
d:\CH573FEVT\CH573F_TFT\obj/../src/Main.c:98
        TFT_Draw_Fast_VLine (&htft1, 10, 40, HEIGHT, WHITE);
        TFT_Draw_Rectangle (&htft1, 30, 90, WIDTH - 70, HEIGHT - 70, BLUE);
        TFT_Fill_Rectangle (&htft1, 30, 160, WIDTH - 20, HEIGHT - 20, GREEN);
        TFT_Draw_Line (&htft1, 0, 40, WIDTH - 1, HEIGHT - 1, TFT_RGB (20, 60, 200));
        TFT_Draw_Circle (&htft1, WIDTH / 2, HEIGHT / 2, 30, BRRED);
        TFT_Fill_Circle (&htft1, WIDTH / 3, HEIGHT / 3, 20, CYAN);
    1e1c:	6aa1                	lui	s5,0x8
d:\CH573FEVT\CH573F_TFT\obj/../src/Main.c:65
    TFT_Config_Pins (&htft1, TFT_DC_GPIO_Port, TFT_DC_Pin, TFT_RES_GPIO_Port, TFT_RES_Pin, TFT_BLK_GPIO_Port, TFT_BLK_Pin);  // 必须手动设置引脚
    1e1e:	995ff0ef          	jal	ra,17b2 <TFT_Config_Pins>
d:\CH573FEVT\CH573F_TFT\obj/../src/Main.c:50
    int i = 0;  // 计数器
    1e22:	4a01                	li	s4,0
d:\CH573FEVT\CH573F_TFT\obj/../src/Main.c:78
            TFT_Config_Display (&htft1, 2, 2, 1);
    1e24:	82018413          	addi	s0,gp,-2016 # 20004080 <htft1>
d:\CH573FEVT\CH573F_TFT\obj/../src/Main.c:80
            TFT_Show_String (&htft1, 20, 20, "now ST7735S", WHITE, BLACK, 16, 0);
    1e28:	fffb0993          	addi	s3,s6,-1 # ffff <_data_lma+0xbdb3>
d:\CH573FEVT\CH573F_TFT\obj/../src/Main.c:81
            HEIGHT = 160;
    1e2c:	0a000c13          	li	s8,160
d:\CH573FEVT\CH573F_TFT\obj/../src/Main.c:86
        TFT_Fill_Area (&htft1, 0, 40, WIDTH, HEIGHT, RED);
    1e30:	20002497          	auipc	s1,0x20002
    1e34:	23048493          	addi	s1,s1,560 # 20004060 <HEIGHT>
    1e38:	80418913          	addi	s2,gp,-2044 # 20004064 <WIDTH>
d:\CH573FEVT\CH573F_TFT\obj/../src/Main.c:90
        TFT_Show_String (&htft1, 20, 40, "Font 16", WHITE, BLACK, 16, 0);
    1e3c:	00002b97          	auipc	s7,0x2
    1e40:	31cb8b93          	addi	s7,s7,796 # 4158 <ascii_8x6+0x258>
d:\CH573FEVT\CH573F_TFT\obj/../src/Main.c:98
        TFT_Fill_Circle (&htft1, WIDTH / 3, HEIGHT / 3, 20, CYAN);
    1e44:	1afd                	addi	s5,s5,-1
d:\CH573FEVT\CH573F_TFT\obj/../src/Main.c:70
        i = i + 1;
    1e46:	0a05                	addi	s4,s4,1
d:\CH573FEVT\CH573F_TFT\obj/../src/Main.c:71
        if (i % 2 == 0) {
    1e48:	001a7793          	andi	a5,s4,1
    1e4c:	1e079f63          	bnez	a5,204a <main+0x2ca>
d:\CH573FEVT\CH573F_TFT\obj/../src/Main.c:72
            TFT_Config_Display (&htft1, 0, 0, 0);
    1e50:	4681                	li	a3,0
    1e52:	4601                	li	a2,0
    1e54:	4581                	li	a1,0
    1e56:	8522                	mv	a0,s0
    1e58:	971ff0ef          	jal	ra,17c8 <TFT_Config_Display>
d:\CH573FEVT\CH573F_TFT\obj/../src/Main.c:73
            TFT_Init_ST7789v3 (&htft1);  // ST7789v3屏幕初始化,右键进入tft_init.c查看更多屏幕的初始化函数
    1e5c:	8522                	mv	a0,s0
    1e5e:	ef2ff0ef          	jal	ra,1550 <TFT_Init_ST7789v3>
d:\CH573FEVT\CH573F_TFT\obj/../src/Main.c:74
            TFT_Show_String (&htft1, 20, 20, "now ST7789v3", WHITE, BLACK, 16, 0);
    1e62:	4781                	li	a5,0
    1e64:	874e                	mv	a4,s3
    1e66:	4881                	li	a7,0
    1e68:	4841                	li	a6,16
    1e6a:	00002697          	auipc	a3,0x2
    1e6e:	2d268693          	addi	a3,a3,722 # 413c <ascii_8x6+0x23c>
    1e72:	4651                	li	a2,20
    1e74:	45d1                	li	a1,20
    1e76:	8522                	mv	a0,s0
    1e78:	3d85                	jal	1ce8 <TFT_Show_String>
d:\CH573FEVT\CH573F_TFT\obj/../src/Main.c:75
            HEIGHT = 320;
    1e7a:	14000793          	li	a5,320
    1e7e:	20002717          	auipc	a4,0x20002
    1e82:	1ef72123          	sw	a5,482(a4) # 20004060 <HEIGHT>
d:\CH573FEVT\CH573F_TFT\obj/../src/Main.c:76
            WIDTH = 240;
    1e86:	0f000793          	li	a5,240
d:\CH573FEVT\CH573F_TFT\obj/../src/Main.c:82
            WIDTH = 128;
    1e8a:	80f1a223          	sw	a5,-2044(gp) # 20004064 <WIDTH>
d:\CH573FEVT\CH573F_TFT\obj/../src/Main.c:86
        TFT_Fill_Area (&htft1, 0, 40, WIDTH, HEIGHT, RED);
    1e8e:	0004d703          	lhu	a4,0(s1)
    1e92:	00095683          	lhu	a3,0(s2)
    1e96:	800b0793          	addi	a5,s6,-2048
    1e9a:	8522                	mv	a0,s0
    1e9c:	02800613          	li	a2,40
    1ea0:	4581                	li	a1,0
    1ea2:	9dbfe0ef          	jal	ra,87c <TFT_Fill_Area>
d:\CH573FEVT\CH573F_TFT\obj/../src/Main.c:87
        TFT_Fill_Area (&htft1, 0, 40, WIDTH, HEIGHT, GREEN);
    1ea6:	0004d703          	lhu	a4,0(s1)
    1eaa:	00095683          	lhu	a3,0(s2)
    1eae:	8522                	mv	a0,s0
    1eb0:	7e000793          	li	a5,2016
    1eb4:	02800613          	li	a2,40
    1eb8:	4581                	li	a1,0
    1eba:	9c3fe0ef          	jal	ra,87c <TFT_Fill_Area>
d:\CH573FEVT\CH573F_TFT\obj/../src/Main.c:88
        TFT_Fill_Area (&htft1, 0, 40, WIDTH, HEIGHT, BLUE);
    1ebe:	0004d703          	lhu	a4,0(s1)
    1ec2:	00095683          	lhu	a3,0(s2)
    1ec6:	8522                	mv	a0,s0
    1ec8:	47fd                	li	a5,31
    1eca:	02800613          	li	a2,40
    1ece:	4581                	li	a1,0
    1ed0:	9adfe0ef          	jal	ra,87c <TFT_Fill_Area>
d:\CH573FEVT\CH573F_TFT\obj/../src/Main.c:90
        TFT_Show_String (&htft1, 20, 40, "Font 16", WHITE, BLACK, 16, 0);
    1ed4:	874e                	mv	a4,s3
    1ed6:	86de                	mv	a3,s7
    1ed8:	8522                	mv	a0,s0
    1eda:	4881                	li	a7,0
    1edc:	4841                	li	a6,16
    1ede:	4781                	li	a5,0
    1ee0:	02800613          	li	a2,40
    1ee4:	45d1                	li	a1,20
    1ee6:	3509                	jal	1ce8 <TFT_Show_String>
d:\CH573FEVT\CH573F_TFT\obj/../src/Main.c:91
        TFT_Show_String (&htft1, 20, 60, "Font 16", BLACK, WHITE, 16, 0);
    1ee8:	4881                	li	a7,0
    1eea:	4841                	li	a6,16
    1eec:	87ce                	mv	a5,s3
    1eee:	86de                	mv	a3,s7
    1ef0:	8522                	mv	a0,s0
    1ef2:	4701                	li	a4,0
    1ef4:	03c00613          	li	a2,60
    1ef8:	45d1                	li	a1,20
    1efa:	33fd                	jal	1ce8 <TFT_Show_String>
d:\CH573FEVT\CH573F_TFT\obj/../src/Main.c:93
        TFT_Draw_Fast_VLine (&htft1, 10, 40, HEIGHT, WHITE);
    1efc:	0004d683          	lhu	a3,0(s1)
    1f00:	874e                	mv	a4,s3
    1f02:	8522                	mv	a0,s0
    1f04:	02800613          	li	a2,40
    1f08:	45a9                	li	a1,10
    1f0a:	a39fe0ef          	jal	ra,942 <TFT_Draw_Fast_VLine>
d:\CH573FEVT\CH573F_TFT\obj/../src/Main.c:94
        TFT_Draw_Rectangle (&htft1, 30, 90, WIDTH - 70, HEIGHT - 70, BLUE);
    1f0e:	4098                	lw	a4,0(s1)
    1f10:	00092683          	lw	a3,0(s2)
    1f14:	8522                	mv	a0,s0
    1f16:	fba70713          	addi	a4,a4,-70
    1f1a:	fba68693          	addi	a3,a3,-70
    1f1e:	0742                	slli	a4,a4,0x10
    1f20:	06c2                	slli	a3,a3,0x10
    1f22:	47fd                	li	a5,31
    1f24:	8341                	srli	a4,a4,0x10
    1f26:	82c1                	srli	a3,a3,0x10
    1f28:	05a00613          	li	a2,90
    1f2c:	45f9                	li	a1,30
    1f2e:	c39fe0ef          	jal	ra,b66 <TFT_Draw_Rectangle>
d:\CH573FEVT\CH573F_TFT\obj/../src/Main.c:95
        TFT_Fill_Rectangle (&htft1, 30, 160, WIDTH - 20, HEIGHT - 20, GREEN);
    1f32:	4098                	lw	a4,0(s1)
    1f34:	00092683          	lw	a3,0(s2)
    1f38:	7e000793          	li	a5,2016
    1f3c:	1731                	addi	a4,a4,-20
    1f3e:	16b1                	addi	a3,a3,-20
    1f40:	0742                	slli	a4,a4,0x10
    1f42:	06c2                	slli	a3,a3,0x10
    1f44:	8522                	mv	a0,s0
    1f46:	8341                	srli	a4,a4,0x10
    1f48:	82c1                	srli	a3,a3,0x10
    1f4a:	0a000613          	li	a2,160
    1f4e:	45f9                	li	a1,30
    1f50:	c85fe0ef          	jal	ra,bd4 <TFT_Fill_Rectangle>
d:\CH573FEVT\CH573F_TFT\obj/../src/Main.c:96
        TFT_Draw_Line (&htft1, 0, 40, WIDTH - 1, HEIGHT - 1, TFT_RGB (20, 60, 200));
    1f54:	00092683          	lw	a3,0(s2)
    1f58:	4098                	lw	a4,0(s1)
    1f5a:	0c800613          	li	a2,200
    1f5e:	16fd                	addi	a3,a3,-1
    1f60:	177d                	addi	a4,a4,-1
    1f62:	06c2                	slli	a3,a3,0x10
    1f64:	0742                	slli	a4,a4,0x10
    1f66:	82c1                	srli	a3,a3,0x10
    1f68:	8341                	srli	a4,a4,0x10
    1f6a:	03c00593          	li	a1,60
    1f6e:	4551                	li	a0,20
    1f70:	c636                	sw	a3,12(sp)
    1f72:	c43a                	sw	a4,8(sp)
    1f74:	c25ff0ef          	jal	ra,1b98 <TFT_RGB>
    1f78:	4722                	lw	a4,8(sp)
    1f7a:	46b2                	lw	a3,12(sp)
    1f7c:	87aa                	mv	a5,a0
    1f7e:	02800613          	li	a2,40
    1f82:	8522                	mv	a0,s0
    1f84:	4581                	li	a1,0
    1f86:	a13fe0ef          	jal	ra,998 <TFT_Draw_Line>
d:\CH573FEVT\CH573F_TFT\obj/../src/Main.c:97
        TFT_Draw_Circle (&htft1, WIDTH / 2, HEIGHT / 2, 30, BRRED);
    1f8a:	4090                	lw	a2,0(s1)
    1f8c:	00092583          	lw	a1,0(s2)
    1f90:	4789                	li	a5,2
    1f92:	02f64633          	div	a2,a2,a5
    1f96:	c07b0713          	addi	a4,s6,-1017
    1f9a:	8522                	mv	a0,s0
    1f9c:	46f9                	li	a3,30
    1f9e:	02f5c5b3          	div	a1,a1,a5
    1fa2:	0642                	slli	a2,a2,0x10
    1fa4:	8241                	srli	a2,a2,0x10
    1fa6:	05c2                	slli	a1,a1,0x10
    1fa8:	81c1                	srli	a1,a1,0x10
    1faa:	c4dfe0ef          	jal	ra,bf6 <TFT_Draw_Circle>
d:\CH573FEVT\CH573F_TFT\obj/../src/Main.c:98
        TFT_Fill_Circle (&htft1, WIDTH / 3, HEIGHT / 3, 20, CYAN);
    1fae:	4090                	lw	a2,0(s1)
    1fb0:	00092583          	lw	a1,0(s2)
    1fb4:	478d                	li	a5,3
    1fb6:	02f64633          	div	a2,a2,a5
    1fba:	8756                	mv	a4,s5
    1fbc:	8522                	mv	a0,s0
    1fbe:	46d1                	li	a3,20
    1fc0:	02f5c5b3          	div	a1,a1,a5
    1fc4:	0642                	slli	a2,a2,0x10
    1fc6:	8241                	srli	a2,a2,0x10
    1fc8:	05c2                	slli	a1,a1,0x10
    1fca:	81c1                	srli	a1,a1,0x10
    1fcc:	da7fe0ef          	jal	ra,d72 <TFT_Fill_Circle>
d:\CH573FEVT\CH573F_TFT\obj/../src/Main.c:99
        TFT_Draw_Ellipse (&htft1, WIDTH / 4, HEIGHT / 4, 60, 30, WHITE);
    1fd0:	4090                	lw	a2,0(s1)
    1fd2:	00092583          	lw	a1,0(s2)
    1fd6:	4791                	li	a5,4
    1fd8:	02f64633          	div	a2,a2,a5
    1fdc:	8522                	mv	a0,s0
    1fde:	4779                	li	a4,30
    1fe0:	03c00693          	li	a3,60
    1fe4:	02f5c5b3          	div	a1,a1,a5
    1fe8:	0642                	slli	a2,a2,0x10
    1fea:	87ce                	mv	a5,s3
    1fec:	8241                	srli	a2,a2,0x10
    1fee:	05c2                	slli	a1,a1,0x10
    1ff0:	81c1                	srli	a1,a1,0x10
    1ff2:	ec9fe0ef          	jal	ra,eba <TFT_Draw_Ellipse>
d:\CH573FEVT\CH573F_TFT\obj/../src/Main.c:100
        TFT_Fill_Ellipse (&htft1, WIDTH - 50, HEIGHT - 50, 50, 20, GBLUE);
    1ff6:	4090                	lw	a2,0(s1)
    1ff8:	00092583          	lw	a1,0(s2)
    1ffc:	7ff00793          	li	a5,2047
    2000:	fce60613          	addi	a2,a2,-50
    2004:	fce58593          	addi	a1,a1,-50
    2008:	0642                	slli	a2,a2,0x10
    200a:	05c2                	slli	a1,a1,0x10
    200c:	4751                	li	a4,20
    200e:	03200693          	li	a3,50
    2012:	8241                	srli	a2,a2,0x10
    2014:	81c1                	srli	a1,a1,0x10
    2016:	8522                	mv	a0,s0
    2018:	860ff0ef          	jal	ra,1078 <TFT_Fill_Ellipse>
d:\CH573FEVT\CH573F_TFT\obj/../src/Main.c:101
        DelayMs (2000);
    201c:	7d000513          	li	a0,2000
    2020:	20002097          	auipc	ra,0x20002
    2024:	a44080e7          	jalr	-1468(ra) # 20003a64 <mDelaymS>
d:\CH573FEVT\CH573F_TFT\obj/../src/Main.c:102
        TFT_Fill_Area (&htft1, 0, 00, WIDTH, HEIGHT, BLACK);  // 清屏
    2028:	0004d703          	lhu	a4,0(s1)
    202c:	00095683          	lhu	a3,0(s2)
    2030:	8522                	mv	a0,s0
    2032:	4781                	li	a5,0
    2034:	4601                	li	a2,0
    2036:	4581                	li	a1,0
    2038:	845fe0ef          	jal	ra,87c <TFT_Fill_Area>
d:\CH573FEVT\CH573F_TFT\obj/../src/Main.c:103
        PRINT ("loop %d\n", i);                               // 你可以使用串口助手的时间戳功能，测量每次循环的时间
    203c:	85d2                	mv	a1,s4
    203e:	00002517          	auipc	a0,0x2
    2042:	12250513          	addi	a0,a0,290 # 4160 <ascii_8x6+0x260>
    2046:	29b5                	jal	24c2 <iprintf>
d:\CH573FEVT\CH573F_TFT\obj/../src/Main.c:70
        i = i + 1;
    2048:	bbfd                	j	1e46 <main+0xc6>
d:\CH573FEVT\CH573F_TFT\obj/../src/Main.c:78
            TFT_Config_Display (&htft1, 2, 2, 1);
    204a:	4685                	li	a3,1
    204c:	4609                	li	a2,2
    204e:	4589                	li	a1,2
    2050:	8522                	mv	a0,s0
    2052:	f76ff0ef          	jal	ra,17c8 <TFT_Config_Display>
d:\CH573FEVT\CH573F_TFT\obj/../src/Main.c:79
            TFT_Init_ST7735S (&htft1);  // ST7735S屏幕初始化,右键进入tft_init.c查看更多屏幕的初始化函数
    2056:	8522                	mv	a0,s0
    2058:	9d0ff0ef          	jal	ra,1228 <TFT_Init_ST7735S>
d:\CH573FEVT\CH573F_TFT\obj/../src/Main.c:80
            TFT_Show_String (&htft1, 20, 20, "now ST7735S", WHITE, BLACK, 16, 0);
    205c:	4781                	li	a5,0
    205e:	4881                	li	a7,0
    2060:	4841                	li	a6,16
    2062:	874e                	mv	a4,s3
    2064:	00002697          	auipc	a3,0x2
    2068:	0e868693          	addi	a3,a3,232 # 414c <ascii_8x6+0x24c>
    206c:	4651                	li	a2,20
    206e:	45d1                	li	a1,20
    2070:	8522                	mv	a0,s0
    2072:	c77ff0ef          	jal	ra,1ce8 <TFT_Show_String>
d:\CH573FEVT\CH573F_TFT\obj/../src/Main.c:81
            HEIGHT = 160;
    2076:	20002797          	auipc	a5,0x20002
    207a:	ff87a523          	sw	s8,-22(a5) # 20004060 <HEIGHT>
d:\CH573FEVT\CH573F_TFT\obj/../src/Main.c:82
            WIDTH = 128;
    207e:	08000793          	li	a5,128
    2082:	b521                	j	1e8a <main+0x10a>

00002084 <GPIOA_ModeCfg>:
GPIOA_ModeCfg():
d:\CH573FEVT\CH573F_TFT\obj/../StdPeriphDriver/CH57x_gpio.c:27
 *
 * @return  none
 */
void GPIOA_ModeCfg(uint32_t pin, GPIOModeTypeDef mode)
{
    switch(mode)
    2084:	4791                	li	a5,4
    2086:	02b7ee63          	bltu	a5,a1,20c2 <GPIOA_ModeCfg+0x3e>
    208a:	00002717          	auipc	a4,0x2
    208e:	0e270713          	addi	a4,a4,226 # 416c <ascii_8x6+0x26c>
    2092:	058a                	slli	a1,a1,0x2
    2094:	95ba                	add	a1,a1,a4
    2096:	419c                	lw	a5,0(a1)
    2098:	97ba                	add	a5,a5,a4
    209a:	8782                	jr	a5
d:\CH573FEVT\CH573F_TFT\obj/../StdPeriphDriver/CH57x_gpio.c:30
    {
        case GPIO_ModeIN_Floating:
            R32_PA_PD_DRV &= ~pin;
    209c:	400017b7          	lui	a5,0x40001
    20a0:	0b47a703          	lw	a4,180(a5) # 400010b4 <_eusrstack+0x1fff90b4>
    20a4:	fff54513          	not	a0,a0
    20a8:	8f69                	and	a4,a4,a0
    20aa:	0ae7aa23          	sw	a4,180(a5)
d:\CH573FEVT\CH573F_TFT\obj/../StdPeriphDriver/CH57x_gpio.c:31
            R32_PA_PU &= ~pin;
    20ae:	0b07a703          	lw	a4,176(a5)
d:\CH573FEVT\CH573F_TFT\obj/../StdPeriphDriver/CH57x_gpio.c:43
            R32_PA_DIR &= ~pin;
            break;

        case GPIO_ModeIN_PD:
            R32_PA_PD_DRV |= pin;
            R32_PA_PU &= ~pin;
    20b2:	8f69                	and	a4,a4,a0
    20b4:	0ae7a823          	sw	a4,176(a5)
d:\CH573FEVT\CH573F_TFT\obj/../StdPeriphDriver/CH57x_gpio.c:44
            R32_PA_DIR &= ~pin;
    20b8:	0a07a703          	lw	a4,160(a5)
    20bc:	8d79                	and	a0,a0,a4
d:\CH573FEVT\CH573F_TFT\obj/../StdPeriphDriver/CH57x_gpio.c:54
            R32_PA_DIR |= pin;
            break;

        case GPIO_ModeOut_PP_20mA:
            R32_PA_PD_DRV |= pin;
            R32_PA_DIR |= pin;
    20be:	0aa7a023          	sw	a0,160(a5)
d:\CH573FEVT\CH573F_TFT\obj/../StdPeriphDriver/CH57x_gpio.c:60
            break;

        default:
            break;
    }
}
    20c2:	8082                	ret
d:\CH573FEVT\CH573F_TFT\obj/../StdPeriphDriver/CH57x_gpio.c:36
            R32_PA_PD_DRV &= ~pin;
    20c4:	400017b7          	lui	a5,0x40001
    20c8:	0b47a683          	lw	a3,180(a5) # 400010b4 <_eusrstack+0x1fff90b4>
    20cc:	fff54713          	not	a4,a0
    20d0:	8ef9                	and	a3,a3,a4
    20d2:	0ad7aa23          	sw	a3,180(a5)
d:\CH573FEVT\CH573F_TFT\obj/../StdPeriphDriver/CH57x_gpio.c:37
            R32_PA_PU |= pin;
    20d6:	0b07a683          	lw	a3,176(a5)
    20da:	8d55                	or	a0,a0,a3
    20dc:	0aa7a823          	sw	a0,176(a5)
d:\CH573FEVT\CH573F_TFT\obj/../StdPeriphDriver/CH57x_gpio.c:38
            R32_PA_DIR &= ~pin;
    20e0:	0a07a683          	lw	a3,160(a5)
    20e4:	8f75                	and	a4,a4,a3
    20e6:	0ae7a023          	sw	a4,160(a5)
d:\CH573FEVT\CH573F_TFT\obj/../StdPeriphDriver/CH57x_gpio.c:39
            break;
    20ea:	8082                	ret
d:\CH573FEVT\CH573F_TFT\obj/../StdPeriphDriver/CH57x_gpio.c:42
            R32_PA_PD_DRV |= pin;
    20ec:	400017b7          	lui	a5,0x40001
    20f0:	0b47a703          	lw	a4,180(a5) # 400010b4 <_eusrstack+0x1fff90b4>
    20f4:	8f49                	or	a4,a4,a0
    20f6:	0ae7aa23          	sw	a4,180(a5)
d:\CH573FEVT\CH573F_TFT\obj/../StdPeriphDriver/CH57x_gpio.c:43
            R32_PA_PU &= ~pin;
    20fa:	0b07a703          	lw	a4,176(a5)
    20fe:	fff54513          	not	a0,a0
    2102:	bf45                	j	20b2 <GPIOA_ModeCfg+0x2e>
d:\CH573FEVT\CH573F_TFT\obj/../StdPeriphDriver/CH57x_gpio.c:48
            R32_PA_PD_DRV &= ~pin;
    2104:	400017b7          	lui	a5,0x40001
    2108:	0b47a683          	lw	a3,180(a5) # 400010b4 <_eusrstack+0x1fff90b4>
    210c:	fff54713          	not	a4,a0
    2110:	8f75                	and	a4,a4,a3
d:\CH573FEVT\CH573F_TFT\obj/../StdPeriphDriver/CH57x_gpio.c:53
            R32_PA_PD_DRV |= pin;
    2112:	0ae7aa23          	sw	a4,180(a5)
d:\CH573FEVT\CH573F_TFT\obj/../StdPeriphDriver/CH57x_gpio.c:54
            R32_PA_DIR |= pin;
    2116:	0a07a703          	lw	a4,160(a5)
    211a:	8d59                	or	a0,a0,a4
    211c:	b74d                	j	20be <GPIOA_ModeCfg+0x3a>
d:\CH573FEVT\CH573F_TFT\obj/../StdPeriphDriver/CH57x_gpio.c:53
            R32_PA_PD_DRV |= pin;
    211e:	400017b7          	lui	a5,0x40001
    2122:	0b47a703          	lw	a4,180(a5) # 400010b4 <_eusrstack+0x1fff90b4>
    2126:	8f49                	or	a4,a4,a0
    2128:	b7ed                	j	2112 <GPIOA_ModeCfg+0x8e>

0000212a <GPIOB_ModeCfg>:
GPIOB_ModeCfg():
d:\CH573FEVT\CH573F_TFT\obj/../StdPeriphDriver/CH57x_gpio.c:74
 *
 * @return  none
 */
void GPIOB_ModeCfg(uint32_t pin, GPIOModeTypeDef mode)
{
    switch(mode)
    212a:	4791                	li	a5,4
    212c:	02b7ee63          	bltu	a5,a1,2168 <GPIOB_ModeCfg+0x3e>
    2130:	00002717          	auipc	a4,0x2
    2134:	05070713          	addi	a4,a4,80 # 4180 <ascii_8x6+0x280>
    2138:	058a                	slli	a1,a1,0x2
    213a:	95ba                	add	a1,a1,a4
    213c:	419c                	lw	a5,0(a1)
    213e:	97ba                	add	a5,a5,a4
    2140:	8782                	jr	a5
d:\CH573FEVT\CH573F_TFT\obj/../StdPeriphDriver/CH57x_gpio.c:77
    {
        case GPIO_ModeIN_Floating:
            R32_PB_PD_DRV &= ~pin;
    2142:	400017b7          	lui	a5,0x40001
    2146:	0d47a703          	lw	a4,212(a5) # 400010d4 <_eusrstack+0x1fff90d4>
    214a:	fff54513          	not	a0,a0
    214e:	8f69                	and	a4,a4,a0
    2150:	0ce7aa23          	sw	a4,212(a5)
d:\CH573FEVT\CH573F_TFT\obj/../StdPeriphDriver/CH57x_gpio.c:78
            R32_PB_PU &= ~pin;
    2154:	0d07a703          	lw	a4,208(a5)
d:\CH573FEVT\CH573F_TFT\obj/../StdPeriphDriver/CH57x_gpio.c:90
            R32_PB_DIR &= ~pin;
            break;

        case GPIO_ModeIN_PD:
            R32_PB_PD_DRV |= pin;
            R32_PB_PU &= ~pin;
    2158:	8f69                	and	a4,a4,a0
    215a:	0ce7a823          	sw	a4,208(a5)
d:\CH573FEVT\CH573F_TFT\obj/../StdPeriphDriver/CH57x_gpio.c:91
            R32_PB_DIR &= ~pin;
    215e:	0c07a703          	lw	a4,192(a5)
    2162:	8d79                	and	a0,a0,a4
d:\CH573FEVT\CH573F_TFT\obj/../StdPeriphDriver/CH57x_gpio.c:101
            R32_PB_DIR |= pin;
            break;

        case GPIO_ModeOut_PP_20mA:
            R32_PB_PD_DRV |= pin;
            R32_PB_DIR |= pin;
    2164:	0ca7a023          	sw	a0,192(a5)
d:\CH573FEVT\CH573F_TFT\obj/../StdPeriphDriver/CH57x_gpio.c:107
            break;

        default:
            break;
    }
}
    2168:	8082                	ret
d:\CH573FEVT\CH573F_TFT\obj/../StdPeriphDriver/CH57x_gpio.c:83
            R32_PB_PD_DRV &= ~pin;
    216a:	400017b7          	lui	a5,0x40001
    216e:	0d47a683          	lw	a3,212(a5) # 400010d4 <_eusrstack+0x1fff90d4>
    2172:	fff54713          	not	a4,a0
    2176:	8ef9                	and	a3,a3,a4
    2178:	0cd7aa23          	sw	a3,212(a5)
d:\CH573FEVT\CH573F_TFT\obj/../StdPeriphDriver/CH57x_gpio.c:84
            R32_PB_PU |= pin;
    217c:	0d07a683          	lw	a3,208(a5)
    2180:	8d55                	or	a0,a0,a3
    2182:	0ca7a823          	sw	a0,208(a5)
d:\CH573FEVT\CH573F_TFT\obj/../StdPeriphDriver/CH57x_gpio.c:85
            R32_PB_DIR &= ~pin;
    2186:	0c07a683          	lw	a3,192(a5)
    218a:	8f75                	and	a4,a4,a3
    218c:	0ce7a023          	sw	a4,192(a5)
d:\CH573FEVT\CH573F_TFT\obj/../StdPeriphDriver/CH57x_gpio.c:86
            break;
    2190:	8082                	ret
d:\CH573FEVT\CH573F_TFT\obj/../StdPeriphDriver/CH57x_gpio.c:89
            R32_PB_PD_DRV |= pin;
    2192:	400017b7          	lui	a5,0x40001
    2196:	0d47a703          	lw	a4,212(a5) # 400010d4 <_eusrstack+0x1fff90d4>
    219a:	8f49                	or	a4,a4,a0
    219c:	0ce7aa23          	sw	a4,212(a5)
d:\CH573FEVT\CH573F_TFT\obj/../StdPeriphDriver/CH57x_gpio.c:90
            R32_PB_PU &= ~pin;
    21a0:	0d07a703          	lw	a4,208(a5)
    21a4:	fff54513          	not	a0,a0
    21a8:	bf45                	j	2158 <GPIOB_ModeCfg+0x2e>
d:\CH573FEVT\CH573F_TFT\obj/../StdPeriphDriver/CH57x_gpio.c:95
            R32_PB_PD_DRV &= ~pin;
    21aa:	400017b7          	lui	a5,0x40001
    21ae:	0d47a683          	lw	a3,212(a5) # 400010d4 <_eusrstack+0x1fff90d4>
    21b2:	fff54713          	not	a4,a0
    21b6:	8f75                	and	a4,a4,a3
d:\CH573FEVT\CH573F_TFT\obj/../StdPeriphDriver/CH57x_gpio.c:100
            R32_PB_PD_DRV |= pin;
    21b8:	0ce7aa23          	sw	a4,212(a5)
d:\CH573FEVT\CH573F_TFT\obj/../StdPeriphDriver/CH57x_gpio.c:101
            R32_PB_DIR |= pin;
    21bc:	0c07a703          	lw	a4,192(a5)
    21c0:	8d59                	or	a0,a0,a4
    21c2:	b74d                	j	2164 <GPIOB_ModeCfg+0x3a>
d:\CH573FEVT\CH573F_TFT\obj/../StdPeriphDriver/CH57x_gpio.c:100
            R32_PB_PD_DRV |= pin;
    21c4:	400017b7          	lui	a5,0x40001
    21c8:	0d47a703          	lw	a4,212(a5) # 400010d4 <_eusrstack+0x1fff90d4>
    21cc:	8f49                	or	a4,a4,a0
    21ce:	b7ed                	j	21b8 <GPIOB_ModeCfg+0x8e>

000021d0 <SPI0_MasterDefInit>:
SPI0_MasterDefInit():
d:\CH573FEVT\CH573F_TFT\obj/../StdPeriphDriver/CH57x_spi0.c:26
 *
 * @return  none
 */
void SPI0_MasterDefInit(void)
{
    R8_SPI0_CLOCK_DIV = 4; // 主频时钟4分频
    21d0:	400047b7          	lui	a5,0x40004
    21d4:	4711                	li	a4,4
    21d6:	00e781a3          	sb	a4,3(a5) # 40004003 <_eusrstack+0x1fffc003>
d:\CH573FEVT\CH573F_TFT\obj/../StdPeriphDriver/CH57x_spi0.c:27
    R8_SPI0_CTRL_MOD = RB_SPI_ALL_CLEAR;
    21da:	4709                	li	a4,2
    21dc:	00e78023          	sb	a4,0(a5)
d:\CH573FEVT\CH573F_TFT\obj/../StdPeriphDriver/CH57x_spi0.c:28
    R8_SPI0_CTRL_MOD = RB_SPI_MOSI_OE | RB_SPI_SCK_OE;
    21e0:	06000713          	li	a4,96
    21e4:	00e78023          	sb	a4,0(a5)
d:\CH573FEVT\CH573F_TFT\obj/../StdPeriphDriver/CH57x_spi0.c:29
    R8_SPI0_CTRL_CFG |= RB_SPI_AUTO_IF;     // 访问BUFFER/FIFO自动清除IF_BYTE_END标志
    21e8:	0017c703          	lbu	a4,1(a5)
    21ec:	01076713          	ori	a4,a4,16
    21f0:	00e780a3          	sb	a4,1(a5)
d:\CH573FEVT\CH573F_TFT\obj/../StdPeriphDriver/CH57x_spi0.c:30
    R8_SPI0_CTRL_CFG &= ~RB_SPI_DMA_ENABLE; // 不启动DMA方式
    21f4:	0017c703          	lbu	a4,1(a5)
    21f8:	0fe77713          	andi	a4,a4,254
    21fc:	00e780a3          	sb	a4,1(a5)
d:\CH573FEVT\CH573F_TFT\obj/../StdPeriphDriver/CH57x_spi0.c:31
}
    2200:	8082                	ret

00002202 <SPI0_MasterDMATrans>:
SPI0_MasterDMATrans():
d:\CH573FEVT\CH573F_TFT\obj/../StdPeriphDriver/CH57x_spi0.c:193
 *
 * @return  none
 */
void SPI0_MasterDMATrans(uint8_t *pbuf, uint16_t len)
{
    R8_SPI0_CTRL_MOD &= ~RB_SPI_FIFO_DIR;
    2202:	400047b7          	lui	a5,0x40004
    2206:	0007c703          	lbu	a4,0(a5) # 40004000 <_eusrstack+0x1fffc000>
    220a:	0ef77713          	andi	a4,a4,239
    220e:	00e78023          	sb	a4,0(a5)
d:\CH573FEVT\CH573F_TFT\obj/../StdPeriphDriver/CH57x_spi0.c:194
    R16_SPI0_DMA_BEG = (uint32_t)pbuf;
    2212:	01051713          	slli	a4,a0,0x10
d:\CH573FEVT\CH573F_TFT\obj/../StdPeriphDriver/CH57x_spi0.c:195
    R16_SPI0_DMA_END = (uint32_t)(pbuf + len);
    2216:	952e                	add	a0,a0,a1
d:\CH573FEVT\CH573F_TFT\obj/../StdPeriphDriver/CH57x_spi0.c:194
    R16_SPI0_DMA_BEG = (uint32_t)pbuf;
    2218:	8341                	srli	a4,a4,0x10
d:\CH573FEVT\CH573F_TFT\obj/../StdPeriphDriver/CH57x_spi0.c:195
    R16_SPI0_DMA_END = (uint32_t)(pbuf + len);
    221a:	0542                	slli	a0,a0,0x10
d:\CH573FEVT\CH573F_TFT\obj/../StdPeriphDriver/CH57x_spi0.c:194
    R16_SPI0_DMA_BEG = (uint32_t)pbuf;
    221c:	00e79c23          	sh	a4,24(a5)
d:\CH573FEVT\CH573F_TFT\obj/../StdPeriphDriver/CH57x_spi0.c:195
    R16_SPI0_DMA_END = (uint32_t)(pbuf + len);
    2220:	8141                	srli	a0,a0,0x10
    2222:	00a79e23          	sh	a0,28(a5)
d:\CH573FEVT\CH573F_TFT\obj/../StdPeriphDriver/CH57x_spi0.c:196
    R16_SPI0_TOTAL_CNT = len;
    2226:	00b79623          	sh	a1,12(a5)
d:\CH573FEVT\CH573F_TFT\obj/../StdPeriphDriver/CH57x_spi0.c:197
    R8_SPI0_INT_FLAG = RB_SPI_IF_CNT_END | RB_SPI_IF_DMA_END;
    222a:	4725                	li	a4,9
    222c:	00e78323          	sb	a4,6(a5)
d:\CH573FEVT\CH573F_TFT\obj/../StdPeriphDriver/CH57x_spi0.c:198
    R8_SPI0_CTRL_CFG |= RB_SPI_DMA_ENABLE;
    2230:	0017c703          	lbu	a4,1(a5)
    2234:	00176713          	ori	a4,a4,1
    2238:	00e780a3          	sb	a4,1(a5)
d:\CH573FEVT\CH573F_TFT\obj/../StdPeriphDriver/CH57x_spi0.c:199 (discriminator 1)
    while(!(R8_SPI0_INT_FLAG & RB_SPI_IF_CNT_END));
    223c:	0067c703          	lbu	a4,6(a5)
    2240:	8b05                	andi	a4,a4,1
    2242:	df6d                	beqz	a4,223c <SPI0_MasterDMATrans+0x3a>
d:\CH573FEVT\CH573F_TFT\obj/../StdPeriphDriver/CH57x_spi0.c:200
    R8_SPI0_CTRL_CFG &= ~RB_SPI_DMA_ENABLE;
    2244:	0017c703          	lbu	a4,1(a5)
    2248:	0fe77713          	andi	a4,a4,254
    224c:	00e780a3          	sb	a4,1(a5)
d:\CH573FEVT\CH573F_TFT\obj/../StdPeriphDriver/CH57x_spi0.c:201
}
    2250:	8082                	ret

00002252 <GetSysClock>:
GetSysClock():
d:\CH573FEVT\CH573F_TFT\obj/../StdPeriphDriver/CH57x_sys.c:94
    rev = R16_CLK_SYS_CFG & 0xff;
    2252:	400017b7          	lui	a5,0x40001
    2256:	0087d503          	lhu	a0,8(a5) # 40001008 <_eusrstack+0x1fff9008>
    225a:	0542                	slli	a0,a0,0x10
    225c:	8141                	srli	a0,a0,0x10
d:\CH573FEVT\CH573F_TFT\obj/../StdPeriphDriver/CH57x_sys.c:95
    if((rev & 0x40) == (0 << 6))
    225e:	04057793          	andi	a5,a0,64
    2262:	eb91                	bnez	a5,2276 <GetSysClock+0x24>
d:\CH573FEVT\CH573F_TFT\obj/../StdPeriphDriver/CH57x_sys.c:97
        return (32000000 / (rev & 0x1f));
    2264:	01f57793          	andi	a5,a0,31
    2268:	01e85537          	lui	a0,0x1e85
d:\CH573FEVT\CH573F_TFT\obj/../StdPeriphDriver/CH57x_sys.c:101
        return (480000000 / (rev & 0x1f));
    226c:	80050513          	addi	a0,a0,-2048 # 1e84800 <_data_lma+0x1e805b4>
    2270:	02f54533          	div	a0,a0,a5
    2274:	8082                	ret
d:\CH573FEVT\CH573F_TFT\obj/../StdPeriphDriver/CH57x_sys.c:99
    else if((rev & RB_CLK_SYS_MOD) == (1 << 6))
    2276:	0c057793          	andi	a5,a0,192
    227a:	04000713          	li	a4,64
    227e:	00e79763          	bne	a5,a4,228c <GetSysClock+0x3a>
d:\CH573FEVT\CH573F_TFT\obj/../StdPeriphDriver/CH57x_sys.c:101
        return (480000000 / (rev & 0x1f));
    2282:	01f57793          	andi	a5,a0,31
    2286:	1c9c4537          	lui	a0,0x1c9c4
    228a:	b7cd                	j	226c <GetSysClock+0x1a>
d:\CH573FEVT\CH573F_TFT\obj/../StdPeriphDriver/CH57x_sys.c:105
        return (32000);
    228c:	6521                	lui	a0,0x8
    228e:	d0050513          	addi	a0,a0,-768 # 7d00 <_data_lma+0x3ab4>
d:\CH573FEVT\CH573F_TFT\obj/../StdPeriphDriver/CH57x_sys.c:107
}
    2292:	8082                	ret

00002294 <_write>:
_write():
d:\CH573FEVT\CH573F_TFT\obj/../StdPeriphDriver/CH57x_sys.c:354

#ifdef DEBUG
int _write(int fd, char *buf, int size)
{
    int i;
    for(i = 0; i < size; i++)
    2294:	4781                	li	a5,0
d:\CH573FEVT\CH573F_TFT\obj/../StdPeriphDriver/CH57x_sys.c:360
    {
#if DEBUG == Debug_UART0
        while(R8_UART0_TFC == UART_FIFO_SIZE);                  /* 等待数据发送 */
        R8_UART0_THR = *buf++; /* 发送数据 */
#elif DEBUG == Debug_UART1
        while(R8_UART1_TFC == UART_FIFO_SIZE);                  /* 等待数据发送 */
    2296:	40003737          	lui	a4,0x40003
    229a:	46a1                	li	a3,8
d:\CH573FEVT\CH573F_TFT\obj/../StdPeriphDriver/CH57x_sys.c:354 (discriminator 1)
    for(i = 0; i < size; i++)
    229c:	00c7c463          	blt	a5,a2,22a4 <_write+0x10>
d:\CH573FEVT\CH573F_TFT\obj/../StdPeriphDriver/CH57x_sys.c:371
        while(R8_UART3_TFC == UART_FIFO_SIZE);                  /* 等待数据发送 */
        R8_UART3_THR = *buf++; /* 发送数据 */
#endif
    }
    return size;
}
    22a0:	8532                	mv	a0,a2
    22a2:	8082                	ret
d:\CH573FEVT\CH573F_TFT\obj/../StdPeriphDriver/CH57x_sys.c:360 (discriminator 1)
        while(R8_UART1_TFC == UART_FIFO_SIZE);                  /* 等待数据发送 */
    22a4:	40b74503          	lbu	a0,1035(a4) # 4000340b <_eusrstack+0x1fffb40b>
    22a8:	fea68ee3          	beq	a3,a0,22a4 <_write+0x10>
d:\CH573FEVT\CH573F_TFT\obj/../StdPeriphDriver/CH57x_sys.c:361 (discriminator 2)
        R8_UART1_THR = *buf++; /* 发送数据 */
    22ac:	00f58533          	add	a0,a1,a5
    22b0:	00054503          	lbu	a0,0(a0)
d:\CH573FEVT\CH573F_TFT\obj/../StdPeriphDriver/CH57x_sys.c:354 (discriminator 2)
    for(i = 0; i < size; i++)
    22b4:	0785                	addi	a5,a5,1
d:\CH573FEVT\CH573F_TFT\obj/../StdPeriphDriver/CH57x_sys.c:361 (discriminator 2)
        R8_UART1_THR = *buf++; /* 发送数据 */
    22b6:	40a70423          	sb	a0,1032(a4)
    22ba:	b7cd                	j	229c <_write+0x8>

000022bc <_sbrk>:
_sbrk():
d:\CH573FEVT\CH573F_TFT\obj/../StdPeriphDriver/CH57x_sys.c:389
{
    extern char _end[];
    extern char _heap_end[];
    static char *curbrk = _end;

    if ((curbrk + incr < _end) || (curbrk + incr > _heap_end))
    22bc:	80818793          	addi	a5,gp,-2040 # 20004068 <curbrk.3772>
    22c0:	439c                	lw	a5,0(a5)
    22c2:	85818713          	addi	a4,gp,-1960 # 200040b8 <_ebss>
    22c6:	953e                	add	a0,a0,a5
    22c8:	00e56c63          	bltu	a0,a4,22e0 <_sbrk+0x24>
d:\CH573FEVT\CH573F_TFT\obj/../StdPeriphDriver/CH57x_sys.c:389 (discriminator 1)
    22cc:	20006717          	auipc	a4,0x20006
    22d0:	b3470713          	addi	a4,a4,-1228 # 20007e00 <_heap_end>
    22d4:	00a76663          	bltu	a4,a0,22e0 <_sbrk+0x24>
d:\CH573FEVT\CH573F_TFT\obj/../StdPeriphDriver/CH57x_sys.c:392
    return NULL - 1;

    curbrk += incr;
    22d8:	80a1a423          	sw	a0,-2040(gp) # 20004068 <curbrk.3772>
d:\CH573FEVT\CH573F_TFT\obj/../StdPeriphDriver/CH57x_sys.c:394
    return curbrk - incr;
}
    22dc:	853e                	mv	a0,a5
    22de:	8082                	ret
d:\CH573FEVT\CH573F_TFT\obj/../StdPeriphDriver/CH57x_sys.c:390
    return NULL - 1;
    22e0:	57fd                	li	a5,-1
    22e2:	bfed                	j	22dc <_sbrk+0x20>

000022e4 <UART1_BaudRateCfg>:
UART1_BaudRateCfg():
d:\CH573FEVT\CH573F_TFT\obj/../StdPeriphDriver/CH57x_uart1.c:43
 * @param   baudrate    - 波特率
 *
 * @return  none
 */
void UART1_BaudRateCfg(uint32_t baudrate)
{
    22e4:	1141                	addi	sp,sp,-16
    22e6:	c422                	sw	s0,8(sp)
    22e8:	c606                	sw	ra,12(sp)
    22ea:	842a                	mv	s0,a0
d:\CH573FEVT\CH573F_TFT\obj/../StdPeriphDriver/CH57x_uart1.c:46
    uint32_t x;

    x = 10 * GetSysClock() / 8 / baudrate;
    22ec:	379d                	jal	2252 <GetSysClock>
    22ee:	4729                	li	a4,10
    22f0:	02e507b3          	mul	a5,a0,a4
d:\CH573FEVT\CH573F_TFT\obj/../StdPeriphDriver/CH57x_uart1.c:49
    x = (x + 5) / 10;
    R16_UART1_DL = (uint16_t)x;
}
    22f4:	40b2                	lw	ra,12(sp)
d:\CH573FEVT\CH573F_TFT\obj/../StdPeriphDriver/CH57x_uart1.c:46
    x = 10 * GetSysClock() / 8 / baudrate;
    22f6:	838d                	srli	a5,a5,0x3
    22f8:	0287d7b3          	divu	a5,a5,s0
d:\CH573FEVT\CH573F_TFT\obj/../StdPeriphDriver/CH57x_uart1.c:49
}
    22fc:	4422                	lw	s0,8(sp)
d:\CH573FEVT\CH573F_TFT\obj/../StdPeriphDriver/CH57x_uart1.c:47
    x = (x + 5) / 10;
    22fe:	0795                	addi	a5,a5,5
    2300:	02e7d7b3          	divu	a5,a5,a4
d:\CH573FEVT\CH573F_TFT\obj/../StdPeriphDriver/CH57x_uart1.c:48
    R16_UART1_DL = (uint16_t)x;
    2304:	40003737          	lui	a4,0x40003
    2308:	07c2                	slli	a5,a5,0x10
    230a:	83c1                	srli	a5,a5,0x10
    230c:	40f71623          	sh	a5,1036(a4) # 4000340c <_eusrstack+0x1fffb40c>
d:\CH573FEVT\CH573F_TFT\obj/../StdPeriphDriver/CH57x_uart1.c:49
}
    2310:	0141                	addi	sp,sp,16
    2312:	8082                	ret

00002314 <UART1_DefInit>:
UART1_DefInit():
d:\CH573FEVT\CH573F_TFT\obj/../StdPeriphDriver/CH57x_uart1.c:26
    UART1_BaudRateCfg(115200);
    2314:	6571                	lui	a0,0x1c
d:\CH573FEVT\CH573F_TFT\obj/../StdPeriphDriver/CH57x_uart1.c:25
{
    2316:	1141                	addi	sp,sp,-16
d:\CH573FEVT\CH573F_TFT\obj/../StdPeriphDriver/CH57x_uart1.c:26
    UART1_BaudRateCfg(115200);
    2318:	20050513          	addi	a0,a0,512 # 1c200 <_data_lma+0x17fb4>
d:\CH573FEVT\CH573F_TFT\obj/../StdPeriphDriver/CH57x_uart1.c:25
{
    231c:	c606                	sw	ra,12(sp)
d:\CH573FEVT\CH573F_TFT\obj/../StdPeriphDriver/CH57x_uart1.c:26
    UART1_BaudRateCfg(115200);
    231e:	37d9                	jal	22e4 <UART1_BaudRateCfg>
d:\CH573FEVT\CH573F_TFT\obj/../StdPeriphDriver/CH57x_uart1.c:27
    R8_UART1_FCR = (2 << 6) | RB_FCR_TX_FIFO_CLR | RB_FCR_RX_FIFO_CLR | RB_FCR_FIFO_EN; // FIFO打开，触发点4字节
    2320:	400037b7          	lui	a5,0x40003
    2324:	f8700713          	li	a4,-121
    2328:	40e78123          	sb	a4,1026(a5) # 40003402 <_eusrstack+0x1fffb402>
d:\CH573FEVT\CH573F_TFT\obj/../StdPeriphDriver/CH57x_uart1.c:28
    R8_UART1_LCR = RB_LCR_WORD_SZ;
    232c:	470d                	li	a4,3
    232e:	40e781a3          	sb	a4,1027(a5)
d:\CH573FEVT\CH573F_TFT\obj/../StdPeriphDriver/CH57x_uart1.c:29
    R8_UART1_IER = RB_IER_TXD_EN;
    2332:	04000713          	li	a4,64
    2336:	40e780a3          	sb	a4,1025(a5)
d:\CH573FEVT\CH573F_TFT\obj/../StdPeriphDriver/CH57x_uart1.c:30
    R8_UART1_DIV = 1;
    233a:	4705                	li	a4,1
    233c:	40e78723          	sb	a4,1038(a5)
d:\CH573FEVT\CH573F_TFT\obj/../StdPeriphDriver/CH57x_uart1.c:31
}
    2340:	40b2                	lw	ra,12(sp)
    2342:	0141                	addi	sp,sp,16
    2344:	8082                	ret

00002346 <malloc>:
malloc():
    2346:	80c18793          	addi	a5,gp,-2036 # 2000406c <_impure_ptr>
    234a:	85aa                	mv	a1,a0
    234c:	4388                	lw	a0,0(a5)
    234e:	a05d                	j	23f4 <_malloc_r>

00002350 <_free_r>:
_free_r():
    2350:	c1cd                	beqz	a1,23f2 <_free_r+0xa2>
    2352:	ffc5a783          	lw	a5,-4(a1)
    2356:	1141                	addi	sp,sp,-16
    2358:	c422                	sw	s0,8(sp)
    235a:	c606                	sw	ra,12(sp)
    235c:	c226                	sw	s1,4(sp)
    235e:	ffc58413          	addi	s0,a1,-4
    2362:	0007d363          	bgez	a5,2368 <_free_r+0x18>
    2366:	943e                	add	s0,s0,a5
    2368:	84aa                	mv	s1,a0
    236a:	2ec5                	jal	275a <__malloc_lock>
    236c:	81818793          	addi	a5,gp,-2024 # 20004078 <__malloc_free_list>
    2370:	439c                	lw	a5,0(a5)
    2372:	eb99                	bnez	a5,2388 <_free_r+0x38>
    2374:	00042223          	sw	zero,4(s0)
    2378:	8081ac23          	sw	s0,-2024(gp) # 20004078 <__malloc_free_list>
    237c:	4422                	lw	s0,8(sp)
    237e:	40b2                	lw	ra,12(sp)
    2380:	8526                	mv	a0,s1
    2382:	4492                	lw	s1,4(sp)
    2384:	0141                	addi	sp,sp,16
    2386:	aed9                	j	275c <__malloc_unlock>
    2388:	00f47e63          	bgeu	s0,a5,23a4 <_free_r+0x54>
    238c:	4014                	lw	a3,0(s0)
    238e:	00d40733          	add	a4,s0,a3
    2392:	00e79663          	bne	a5,a4,239e <_free_r+0x4e>
    2396:	4398                	lw	a4,0(a5)
    2398:	43dc                	lw	a5,4(a5)
    239a:	9736                	add	a4,a4,a3
    239c:	c018                	sw	a4,0(s0)
    239e:	c05c                	sw	a5,4(s0)
    23a0:	bfe1                	j	2378 <_free_r+0x28>
    23a2:	87ba                	mv	a5,a4
    23a4:	43d8                	lw	a4,4(a5)
    23a6:	c319                	beqz	a4,23ac <_free_r+0x5c>
    23a8:	fee47de3          	bgeu	s0,a4,23a2 <_free_r+0x52>
    23ac:	4394                	lw	a3,0(a5)
    23ae:	00d78633          	add	a2,a5,a3
    23b2:	00861f63          	bne	a2,s0,23d0 <_free_r+0x80>
    23b6:	4010                	lw	a2,0(s0)
    23b8:	96b2                	add	a3,a3,a2
    23ba:	c394                	sw	a3,0(a5)
    23bc:	00d78633          	add	a2,a5,a3
    23c0:	fac71ee3          	bne	a4,a2,237c <_free_r+0x2c>
    23c4:	4310                	lw	a2,0(a4)
    23c6:	4358                	lw	a4,4(a4)
    23c8:	96b2                	add	a3,a3,a2
    23ca:	c394                	sw	a3,0(a5)
    23cc:	c3d8                	sw	a4,4(a5)
    23ce:	b77d                	j	237c <_free_r+0x2c>
    23d0:	00c47563          	bgeu	s0,a2,23da <_free_r+0x8a>
    23d4:	47b1                	li	a5,12
    23d6:	c09c                	sw	a5,0(s1)
    23d8:	b755                	j	237c <_free_r+0x2c>
    23da:	4010                	lw	a2,0(s0)
    23dc:	00c406b3          	add	a3,s0,a2
    23e0:	00d71663          	bne	a4,a3,23ec <_free_r+0x9c>
    23e4:	4314                	lw	a3,0(a4)
    23e6:	4358                	lw	a4,4(a4)
    23e8:	96b2                	add	a3,a3,a2
    23ea:	c014                	sw	a3,0(s0)
    23ec:	c058                	sw	a4,4(s0)
    23ee:	c3c0                	sw	s0,4(a5)
    23f0:	b771                	j	237c <_free_r+0x2c>
    23f2:	8082                	ret

000023f4 <_malloc_r>:
_malloc_r():
    23f4:	1101                	addi	sp,sp,-32
    23f6:	ca26                	sw	s1,20(sp)
    23f8:	00358493          	addi	s1,a1,3
    23fc:	98f1                	andi	s1,s1,-4
    23fe:	ce06                	sw	ra,28(sp)
    2400:	cc22                	sw	s0,24(sp)
    2402:	c84a                	sw	s2,16(sp)
    2404:	c64e                	sw	s3,12(sp)
    2406:	04a1                	addi	s1,s1,8
    2408:	47b1                	li	a5,12
    240a:	04f4f163          	bgeu	s1,a5,244c <_malloc_r+0x58>
    240e:	44b1                	li	s1,12
    2410:	04b4e063          	bltu	s1,a1,2450 <_malloc_r+0x5c>
    2414:	892a                	mv	s2,a0
    2416:	2691                	jal	275a <__malloc_lock>
    2418:	81818793          	addi	a5,gp,-2024 # 20004078 <__malloc_free_list>
    241c:	4398                	lw	a4,0(a5)
    241e:	843a                	mv	s0,a4
    2420:	e031                	bnez	s0,2464 <_malloc_r+0x70>
    2422:	81c18793          	addi	a5,gp,-2020 # 2000407c <__malloc_sbrk_start>
    2426:	439c                	lw	a5,0(a5)
    2428:	e791                	bnez	a5,2434 <_malloc_r+0x40>
    242a:	4581                	li	a1,0
    242c:	854a                	mv	a0,s2
    242e:	28c9                	jal	2500 <_sbrk_r>
    2430:	80a1ae23          	sw	a0,-2020(gp) # 2000407c <__malloc_sbrk_start>
    2434:	85a6                	mv	a1,s1
    2436:	854a                	mv	a0,s2
    2438:	20e1                	jal	2500 <_sbrk_r>
    243a:	59fd                	li	s3,-1
    243c:	07351763          	bne	a0,s3,24aa <_malloc_r+0xb6>
    2440:	47b1                	li	a5,12
    2442:	00f92023          	sw	a5,0(s2)
    2446:	854a                	mv	a0,s2
    2448:	2e11                	jal	275c <__malloc_unlock>
    244a:	a029                	j	2454 <_malloc_r+0x60>
    244c:	fc04d2e3          	bgez	s1,2410 <_malloc_r+0x1c>
    2450:	47b1                	li	a5,12
    2452:	c11c                	sw	a5,0(a0)
    2454:	4501                	li	a0,0
    2456:	40f2                	lw	ra,28(sp)
    2458:	4462                	lw	s0,24(sp)
    245a:	44d2                	lw	s1,20(sp)
    245c:	4942                	lw	s2,16(sp)
    245e:	49b2                	lw	s3,12(sp)
    2460:	6105                	addi	sp,sp,32
    2462:	8082                	ret
    2464:	401c                	lw	a5,0(s0)
    2466:	8f85                	sub	a5,a5,s1
    2468:	0207ce63          	bltz	a5,24a4 <_malloc_r+0xb0>
    246c:	46ad                	li	a3,11
    246e:	00f6f663          	bgeu	a3,a5,247a <_malloc_r+0x86>
    2472:	c01c                	sw	a5,0(s0)
    2474:	943e                	add	s0,s0,a5
    2476:	c004                	sw	s1,0(s0)
    2478:	a031                	j	2484 <_malloc_r+0x90>
    247a:	405c                	lw	a5,4(s0)
    247c:	02871263          	bne	a4,s0,24a0 <_malloc_r+0xac>
    2480:	80f1ac23          	sw	a5,-2024(gp) # 20004078 <__malloc_free_list>
    2484:	854a                	mv	a0,s2
    2486:	2cd9                	jal	275c <__malloc_unlock>
    2488:	00b40513          	addi	a0,s0,11
    248c:	00440793          	addi	a5,s0,4
    2490:	9961                	andi	a0,a0,-8
    2492:	40f50733          	sub	a4,a0,a5
    2496:	d361                	beqz	a4,2456 <_malloc_r+0x62>
    2498:	943a                	add	s0,s0,a4
    249a:	8f89                	sub	a5,a5,a0
    249c:	c01c                	sw	a5,0(s0)
    249e:	bf65                	j	2456 <_malloc_r+0x62>
    24a0:	c35c                	sw	a5,4(a4)
    24a2:	b7cd                	j	2484 <_malloc_r+0x90>
    24a4:	8722                	mv	a4,s0
    24a6:	4040                	lw	s0,4(s0)
    24a8:	bfa5                	j	2420 <_malloc_r+0x2c>
    24aa:	00350413          	addi	s0,a0,3
    24ae:	9871                	andi	s0,s0,-4
    24b0:	fc8503e3          	beq	a0,s0,2476 <_malloc_r+0x82>
    24b4:	40a405b3          	sub	a1,s0,a0
    24b8:	854a                	mv	a0,s2
    24ba:	2099                	jal	2500 <_sbrk_r>
    24bc:	fb351de3          	bne	a0,s3,2476 <_malloc_r+0x82>
    24c0:	b741                	j	2440 <_malloc_r+0x4c>

000024c2 <iprintf>:
printf():
    24c2:	7139                	addi	sp,sp,-64
    24c4:	da3e                	sw	a5,52(sp)
    24c6:	d22e                	sw	a1,36(sp)
    24c8:	d432                	sw	a2,40(sp)
    24ca:	d636                	sw	a3,44(sp)
    24cc:	d83a                	sw	a4,48(sp)
    24ce:	dc42                	sw	a6,56(sp)
    24d0:	de46                	sw	a7,60(sp)
    24d2:	80c18793          	addi	a5,gp,-2036 # 2000406c <_impure_ptr>
    24d6:	cc22                	sw	s0,24(sp)
    24d8:	4380                	lw	s0,0(a5)
    24da:	ca26                	sw	s1,20(sp)
    24dc:	ce06                	sw	ra,28(sp)
    24de:	84aa                	mv	s1,a0
    24e0:	c409                	beqz	s0,24ea <iprintf+0x28>
    24e2:	4c1c                	lw	a5,24(s0)
    24e4:	e399                	bnez	a5,24ea <iprintf+0x28>
    24e6:	8522                	mv	a0,s0
    24e8:	28f5                	jal	25e4 <__sinit>
    24ea:	440c                	lw	a1,8(s0)
    24ec:	1054                	addi	a3,sp,36
    24ee:	8626                	mv	a2,s1
    24f0:	8522                	mv	a0,s0
    24f2:	c636                	sw	a3,12(sp)
    24f4:	2cd1                	jal	27c8 <_vfiprintf_r>
    24f6:	40f2                	lw	ra,28(sp)
    24f8:	4462                	lw	s0,24(sp)
    24fa:	44d2                	lw	s1,20(sp)
    24fc:	6121                	addi	sp,sp,64
    24fe:	8082                	ret

00002500 <_sbrk_r>:
_sbrk_r():
    2500:	1141                	addi	sp,sp,-16
    2502:	c422                	sw	s0,8(sp)
    2504:	842a                	mv	s0,a0
    2506:	852e                	mv	a0,a1
    2508:	8401aa23          	sw	zero,-1964(gp) # 200040b4 <errno>
    250c:	c606                	sw	ra,12(sp)
    250e:	dafff0ef          	jal	ra,22bc <_sbrk>
    2512:	57fd                	li	a5,-1
    2514:	00f51763          	bne	a0,a5,2522 <_sbrk_r+0x22>
    2518:	85418793          	addi	a5,gp,-1964 # 200040b4 <errno>
    251c:	439c                	lw	a5,0(a5)
    251e:	c391                	beqz	a5,2522 <_sbrk_r+0x22>
    2520:	c01c                	sw	a5,0(s0)
    2522:	40b2                	lw	ra,12(sp)
    2524:	4422                	lw	s0,8(sp)
    2526:	0141                	addi	sp,sp,16
    2528:	8082                	ret

0000252a <std>:
std():
    252a:	1141                	addi	sp,sp,-16
    252c:	c422                	sw	s0,8(sp)
    252e:	c606                	sw	ra,12(sp)
    2530:	842a                	mv	s0,a0
    2532:	00b51623          	sh	a1,12(a0)
    2536:	00c51723          	sh	a2,14(a0)
    253a:	00052023          	sw	zero,0(a0)
    253e:	00052223          	sw	zero,4(a0)
    2542:	00052423          	sw	zero,8(a0)
    2546:	06052223          	sw	zero,100(a0)
    254a:	00052823          	sw	zero,16(a0)
    254e:	00052a23          	sw	zero,20(a0)
    2552:	00052c23          	sw	zero,24(a0)
    2556:	4621                	li	a2,8
    2558:	4581                	li	a1,0
    255a:	05c50513          	addi	a0,a0,92
    255e:	9f8fe0ef          	jal	ra,756 <memset>
    2562:	00001797          	auipc	a5,0x1
    2566:	8bc78793          	addi	a5,a5,-1860 # 2e1e <__sread>
    256a:	d05c                	sw	a5,36(s0)
    256c:	00001797          	auipc	a5,0x1
    2570:	8e278793          	addi	a5,a5,-1822 # 2e4e <__swrite>
    2574:	d41c                	sw	a5,40(s0)
    2576:	00001797          	auipc	a5,0x1
    257a:	92678793          	addi	a5,a5,-1754 # 2e9c <__sseek>
    257e:	d45c                	sw	a5,44(s0)
    2580:	00001797          	auipc	a5,0x1
    2584:	95278793          	addi	a5,a5,-1710 # 2ed2 <__sclose>
    2588:	d000                	sw	s0,32(s0)
    258a:	d81c                	sw	a5,48(s0)
    258c:	40b2                	lw	ra,12(sp)
    258e:	4422                	lw	s0,8(sp)
    2590:	0141                	addi	sp,sp,16
    2592:	8082                	ret

00002594 <_cleanup_r>:
_cleanup_r():
    2594:	00001597          	auipc	a1,0x1
    2598:	caa58593          	addi	a1,a1,-854 # 323e <_fflush_r>
    259c:	aa89                	j	26ee <_fwalk_reent>

0000259e <__sfmoreglue>:
__sfmoreglue():
    259e:	1141                	addi	sp,sp,-16
    25a0:	c226                	sw	s1,4(sp)
    25a2:	06800613          	li	a2,104
    25a6:	fff58493          	addi	s1,a1,-1
    25aa:	02c484b3          	mul	s1,s1,a2
    25ae:	c04a                	sw	s2,0(sp)
    25b0:	892e                	mv	s2,a1
    25b2:	c422                	sw	s0,8(sp)
    25b4:	c606                	sw	ra,12(sp)
    25b6:	07448593          	addi	a1,s1,116
    25ba:	3d2d                	jal	23f4 <_malloc_r>
    25bc:	842a                	mv	s0,a0
    25be:	cd01                	beqz	a0,25d6 <__sfmoreglue+0x38>
    25c0:	00052023          	sw	zero,0(a0)
    25c4:	01252223          	sw	s2,4(a0)
    25c8:	0531                	addi	a0,a0,12
    25ca:	c408                	sw	a0,8(s0)
    25cc:	06848613          	addi	a2,s1,104
    25d0:	4581                	li	a1,0
    25d2:	984fe0ef          	jal	ra,756 <memset>
    25d6:	8522                	mv	a0,s0
    25d8:	40b2                	lw	ra,12(sp)
    25da:	4422                	lw	s0,8(sp)
    25dc:	4492                	lw	s1,4(sp)
    25de:	4902                	lw	s2,0(sp)
    25e0:	0141                	addi	sp,sp,16
    25e2:	8082                	ret

000025e4 <__sinit>:
__sinit():
    25e4:	4d1c                	lw	a5,24(a0)
    25e6:	e3bd                	bnez	a5,264c <__sinit+0x68>
    25e8:	1141                	addi	sp,sp,-16
    25ea:	c606                	sw	ra,12(sp)
    25ec:	c422                	sw	s0,8(sp)
    25ee:	00000797          	auipc	a5,0x0
    25f2:	fa678793          	addi	a5,a5,-90 # 2594 <_cleanup_r>
    25f6:	d51c                	sw	a5,40(a0)
    25f8:	00002797          	auipc	a5,0x2
    25fc:	c5078793          	addi	a5,a5,-944 # 4248 <_global_impure_ptr>
    2600:	439c                	lw	a5,0(a5)
    2602:	04052423          	sw	zero,72(a0)
    2606:	04052623          	sw	zero,76(a0)
    260a:	04052823          	sw	zero,80(a0)
    260e:	00f51463          	bne	a0,a5,2616 <__sinit+0x32>
    2612:	4785                	li	a5,1
    2614:	cd1c                	sw	a5,24(a0)
    2616:	842a                	mv	s0,a0
    2618:	281d                	jal	264e <__sfp>
    261a:	c048                	sw	a0,4(s0)
    261c:	8522                	mv	a0,s0
    261e:	2805                	jal	264e <__sfp>
    2620:	c408                	sw	a0,8(s0)
    2622:	8522                	mv	a0,s0
    2624:	202d                	jal	264e <__sfp>
    2626:	c448                	sw	a0,12(s0)
    2628:	4048                	lw	a0,4(s0)
    262a:	4601                	li	a2,0
    262c:	4591                	li	a1,4
    262e:	3df5                	jal	252a <std>
    2630:	4408                	lw	a0,8(s0)
    2632:	4605                	li	a2,1
    2634:	45a5                	li	a1,9
    2636:	3dd5                	jal	252a <std>
    2638:	4448                	lw	a0,12(s0)
    263a:	4609                	li	a2,2
    263c:	45c9                	li	a1,18
    263e:	35f5                	jal	252a <std>
    2640:	4785                	li	a5,1
    2642:	cc1c                	sw	a5,24(s0)
    2644:	40b2                	lw	ra,12(sp)
    2646:	4422                	lw	s0,8(sp)
    2648:	0141                	addi	sp,sp,16
    264a:	8082                	ret
    264c:	8082                	ret

0000264e <__sfp>:
__sfp():
    264e:	1141                	addi	sp,sp,-16
    2650:	00002797          	auipc	a5,0x2
    2654:	bf878793          	addi	a5,a5,-1032 # 4248 <_global_impure_ptr>
    2658:	c226                	sw	s1,4(sp)
    265a:	4384                	lw	s1,0(a5)
    265c:	c04a                	sw	s2,0(sp)
    265e:	c606                	sw	ra,12(sp)
    2660:	4c9c                	lw	a5,24(s1)
    2662:	c422                	sw	s0,8(sp)
    2664:	892a                	mv	s2,a0
    2666:	e399                	bnez	a5,266c <__sfp+0x1e>
    2668:	8526                	mv	a0,s1
    266a:	3fad                	jal	25e4 <__sinit>
    266c:	04848493          	addi	s1,s1,72
    2670:	4480                	lw	s0,8(s1)
    2672:	40dc                	lw	a5,4(s1)
    2674:	17fd                	addi	a5,a5,-1
    2676:	0007d663          	bgez	a5,2682 <__sfp+0x34>
    267a:	409c                	lw	a5,0(s1)
    267c:	cfb9                	beqz	a5,26da <__sfp+0x8c>
    267e:	4084                	lw	s1,0(s1)
    2680:	bfc5                	j	2670 <__sfp+0x22>
    2682:	00c41703          	lh	a4,12(s0)
    2686:	e739                	bnez	a4,26d4 <__sfp+0x86>
    2688:	77c1                	lui	a5,0xffff0
    268a:	0785                	addi	a5,a5,1
    268c:	06042223          	sw	zero,100(s0)
    2690:	00042023          	sw	zero,0(s0)
    2694:	00042223          	sw	zero,4(s0)
    2698:	00042423          	sw	zero,8(s0)
    269c:	c45c                	sw	a5,12(s0)
    269e:	00042823          	sw	zero,16(s0)
    26a2:	00042a23          	sw	zero,20(s0)
    26a6:	00042c23          	sw	zero,24(s0)
    26aa:	4621                	li	a2,8
    26ac:	4581                	li	a1,0
    26ae:	05c40513          	addi	a0,s0,92
    26b2:	8a4fe0ef          	jal	ra,756 <memset>
    26b6:	02042a23          	sw	zero,52(s0)
    26ba:	02042c23          	sw	zero,56(s0)
    26be:	04042423          	sw	zero,72(s0)
    26c2:	04042623          	sw	zero,76(s0)
    26c6:	8522                	mv	a0,s0
    26c8:	40b2                	lw	ra,12(sp)
    26ca:	4422                	lw	s0,8(sp)
    26cc:	4492                	lw	s1,4(sp)
    26ce:	4902                	lw	s2,0(sp)
    26d0:	0141                	addi	sp,sp,16
    26d2:	8082                	ret
    26d4:	06840413          	addi	s0,s0,104
    26d8:	bf71                	j	2674 <__sfp+0x26>
    26da:	4591                	li	a1,4
    26dc:	854a                	mv	a0,s2
    26de:	35c1                	jal	259e <__sfmoreglue>
    26e0:	c088                	sw	a0,0(s1)
    26e2:	fd51                	bnez	a0,267e <__sfp+0x30>
    26e4:	47b1                	li	a5,12
    26e6:	00f92023          	sw	a5,0(s2)
    26ea:	4401                	li	s0,0
    26ec:	bfe9                	j	26c6 <__sfp+0x78>

000026ee <_fwalk_reent>:
_fwalk_reent():
    26ee:	7179                	addi	sp,sp,-48
    26f0:	d422                	sw	s0,40(sp)
    26f2:	d04a                	sw	s2,32(sp)
    26f4:	cc52                	sw	s4,24(sp)
    26f6:	ca56                	sw	s5,20(sp)
    26f8:	c85a                	sw	s6,16(sp)
    26fa:	c65e                	sw	s7,12(sp)
    26fc:	d606                	sw	ra,44(sp)
    26fe:	d226                	sw	s1,36(sp)
    2700:	ce4e                	sw	s3,28(sp)
    2702:	8a2a                	mv	s4,a0
    2704:	8aae                	mv	s5,a1
    2706:	04850413          	addi	s0,a0,72
    270a:	4901                	li	s2,0
    270c:	4b05                	li	s6,1
    270e:	5bfd                	li	s7,-1
    2710:	ec09                	bnez	s0,272a <_fwalk_reent+0x3c>
    2712:	50b2                	lw	ra,44(sp)
    2714:	5422                	lw	s0,40(sp)
    2716:	854a                	mv	a0,s2
    2718:	5492                	lw	s1,36(sp)
    271a:	5902                	lw	s2,32(sp)
    271c:	49f2                	lw	s3,28(sp)
    271e:	4a62                	lw	s4,24(sp)
    2720:	4ad2                	lw	s5,20(sp)
    2722:	4b42                	lw	s6,16(sp)
    2724:	4bb2                	lw	s7,12(sp)
    2726:	6145                	addi	sp,sp,48
    2728:	8082                	ret
    272a:	4404                	lw	s1,8(s0)
    272c:	00442983          	lw	s3,4(s0)
    2730:	19fd                	addi	s3,s3,-1
    2732:	0009d463          	bgez	s3,273a <_fwalk_reent+0x4c>
    2736:	4000                	lw	s0,0(s0)
    2738:	bfe1                	j	2710 <_fwalk_reent+0x22>
    273a:	00c4d783          	lhu	a5,12(s1)
    273e:	00fb7b63          	bgeu	s6,a5,2754 <_fwalk_reent+0x66>
    2742:	00e49783          	lh	a5,14(s1)
    2746:	01778763          	beq	a5,s7,2754 <_fwalk_reent+0x66>
    274a:	85a6                	mv	a1,s1
    274c:	8552                	mv	a0,s4
    274e:	9a82                	jalr	s5
    2750:	00a96933          	or	s2,s2,a0
    2754:	06848493          	addi	s1,s1,104
    2758:	bfe1                	j	2730 <_fwalk_reent+0x42>

0000275a <__malloc_lock>:
__malloc_lock():
    275a:	8082                	ret

0000275c <__malloc_unlock>:
__malloc_unlock():
    275c:	8082                	ret

0000275e <__sfputc_r>:
__sfputc_r():
    275e:	461c                	lw	a5,8(a2)
    2760:	17fd                	addi	a5,a5,-1
    2762:	c61c                	sw	a5,8(a2)
    2764:	0007d963          	bgez	a5,2776 <__sfputc_r+0x18>
    2768:	4e18                	lw	a4,24(a2)
    276a:	00e7c563          	blt	a5,a4,2774 <__sfputc_r+0x16>
    276e:	47a9                	li	a5,10
    2770:	00f59363          	bne	a1,a5,2776 <__sfputc_r+0x18>
    2774:	a795                	j	2ed8 <__swbuf_r>
    2776:	421c                	lw	a5,0(a2)
    2778:	852e                	mv	a0,a1
    277a:	00178713          	addi	a4,a5,1 # ffff0001 <_eusrstack+0xdffe8001>
    277e:	c218                	sw	a4,0(a2)
    2780:	00b78023          	sb	a1,0(a5)
    2784:	8082                	ret

00002786 <__sfputs_r>:
__sfputs_r():
    2786:	1101                	addi	sp,sp,-32
    2788:	cc22                	sw	s0,24(sp)
    278a:	ca26                	sw	s1,20(sp)
    278c:	c84a                	sw	s2,16(sp)
    278e:	c64e                	sw	s3,12(sp)
    2790:	c452                	sw	s4,8(sp)
    2792:	ce06                	sw	ra,28(sp)
    2794:	892a                	mv	s2,a0
    2796:	89ae                	mv	s3,a1
    2798:	8432                	mv	s0,a2
    279a:	00d604b3          	add	s1,a2,a3
    279e:	5a7d                	li	s4,-1
    27a0:	00941463          	bne	s0,s1,27a8 <__sfputs_r+0x22>
    27a4:	4501                	li	a0,0
    27a6:	a809                	j	27b8 <__sfputs_r+0x32>
    27a8:	00044583          	lbu	a1,0(s0)
    27ac:	864e                	mv	a2,s3
    27ae:	854a                	mv	a0,s2
    27b0:	377d                	jal	275e <__sfputc_r>
    27b2:	0405                	addi	s0,s0,1
    27b4:	ff4516e3          	bne	a0,s4,27a0 <__sfputs_r+0x1a>
    27b8:	40f2                	lw	ra,28(sp)
    27ba:	4462                	lw	s0,24(sp)
    27bc:	44d2                	lw	s1,20(sp)
    27be:	4942                	lw	s2,16(sp)
    27c0:	49b2                	lw	s3,12(sp)
    27c2:	4a22                	lw	s4,8(sp)
    27c4:	6105                	addi	sp,sp,32
    27c6:	8082                	ret

000027c8 <_vfiprintf_r>:
_vfiprintf_r():
    27c8:	7135                	addi	sp,sp,-160
    27ca:	cd22                	sw	s0,152(sp)
    27cc:	cb26                	sw	s1,148(sp)
    27ce:	c94a                	sw	s2,144(sp)
    27d0:	c74e                	sw	s3,140(sp)
    27d2:	cf06                	sw	ra,156(sp)
    27d4:	c552                	sw	s4,136(sp)
    27d6:	c356                	sw	s5,132(sp)
    27d8:	c15a                	sw	s6,128(sp)
    27da:	dede                	sw	s7,124(sp)
    27dc:	dce2                	sw	s8,120(sp)
    27de:	dae6                	sw	s9,116(sp)
    27e0:	89aa                	mv	s3,a0
    27e2:	84ae                	mv	s1,a1
    27e4:	8932                	mv	s2,a2
    27e6:	8436                	mv	s0,a3
    27e8:	c509                	beqz	a0,27f2 <_vfiprintf_r+0x2a>
    27ea:	4d1c                	lw	a5,24(a0)
    27ec:	e399                	bnez	a5,27f2 <_vfiprintf_r+0x2a>
    27ee:	df7ff0ef          	jal	ra,25e4 <__sinit>
    27f2:	00002797          	auipc	a5,0x2
    27f6:	9c278793          	addi	a5,a5,-1598 # 41b4 <__sf_fake_stdin>
    27fa:	0cf49c63          	bne	s1,a5,28d2 <_vfiprintf_r+0x10a>
    27fe:	0049a483          	lw	s1,4(s3)
    2802:	00c4d783          	lhu	a5,12(s1)
    2806:	8ba1                	andi	a5,a5,8
    2808:	c7fd                	beqz	a5,28f6 <_vfiprintf_r+0x12e>
    280a:	489c                	lw	a5,16(s1)
    280c:	c7ed                	beqz	a5,28f6 <_vfiprintf_r+0x12e>
    280e:	02000793          	li	a5,32
    2812:	02f104a3          	sb	a5,41(sp)
    2816:	03000793          	li	a5,48
    281a:	d202                	sw	zero,36(sp)
    281c:	02f10523          	sb	a5,42(sp)
    2820:	c622                	sw	s0,12(sp)
    2822:	02500b93          	li	s7,37
    2826:	00002a97          	auipc	s5,0x2
    282a:	9cea8a93          	addi	s5,s5,-1586 # 41f4 <__sf_fake_stdout+0x20>
    282e:	4c05                	li	s8,1
    2830:	4b29                	li	s6,10
    2832:	844a                	mv	s0,s2
    2834:	00044783          	lbu	a5,0(s0)
    2838:	c399                	beqz	a5,283e <_vfiprintf_r+0x76>
    283a:	0f779063          	bne	a5,s7,291a <_vfiprintf_r+0x152>
    283e:	41240cb3          	sub	s9,s0,s2
    2842:	000c8d63          	beqz	s9,285c <_vfiprintf_r+0x94>
    2846:	86e6                	mv	a3,s9
    2848:	864a                	mv	a2,s2
    284a:	85a6                	mv	a1,s1
    284c:	854e                	mv	a0,s3
    284e:	3f25                	jal	2786 <__sfputs_r>
    2850:	57fd                	li	a5,-1
    2852:	1ef50863          	beq	a0,a5,2a42 <_vfiprintf_r+0x27a>
    2856:	5692                	lw	a3,36(sp)
    2858:	96e6                	add	a3,a3,s9
    285a:	d236                	sw	a3,36(sp)
    285c:	00044783          	lbu	a5,0(s0)
    2860:	1e078163          	beqz	a5,2a42 <_vfiprintf_r+0x27a>
    2864:	57fd                	li	a5,-1
    2866:	00140913          	addi	s2,s0,1
    286a:	c802                	sw	zero,16(sp)
    286c:	ce02                	sw	zero,28(sp)
    286e:	ca3e                	sw	a5,20(sp)
    2870:	cc02                	sw	zero,24(sp)
    2872:	040109a3          	sb	zero,83(sp)
    2876:	d482                	sw	zero,104(sp)
    2878:	00094583          	lbu	a1,0(s2)
    287c:	4615                	li	a2,5
    287e:	8556                	mv	a0,s5
    2880:	347000ef          	jal	ra,33c6 <memchr>
    2884:	00190413          	addi	s0,s2,1
    2888:	47c2                	lw	a5,16(sp)
    288a:	e951                	bnez	a0,291e <_vfiprintf_r+0x156>
    288c:	0107f713          	andi	a4,a5,16
    2890:	c709                	beqz	a4,289a <_vfiprintf_r+0xd2>
    2892:	02000713          	li	a4,32
    2896:	04e109a3          	sb	a4,83(sp)
    289a:	0087f713          	andi	a4,a5,8
    289e:	c709                	beqz	a4,28a8 <_vfiprintf_r+0xe0>
    28a0:	02b00713          	li	a4,43
    28a4:	04e109a3          	sb	a4,83(sp)
    28a8:	00094683          	lbu	a3,0(s2)
    28ac:	02a00713          	li	a4,42
    28b0:	06e68f63          	beq	a3,a4,292e <_vfiprintf_r+0x166>
    28b4:	47f2                	lw	a5,28(sp)
    28b6:	844a                	mv	s0,s2
    28b8:	4681                	li	a3,0
    28ba:	4625                	li	a2,9
    28bc:	00044703          	lbu	a4,0(s0)
    28c0:	00140593          	addi	a1,s0,1
    28c4:	fd070713          	addi	a4,a4,-48
    28c8:	0ae67863          	bgeu	a2,a4,2978 <_vfiprintf_r+0x1b0>
    28cc:	caad                	beqz	a3,293e <_vfiprintf_r+0x176>
    28ce:	ce3e                	sw	a5,28(sp)
    28d0:	a0bd                	j	293e <_vfiprintf_r+0x176>
    28d2:	00002797          	auipc	a5,0x2
    28d6:	90278793          	addi	a5,a5,-1790 # 41d4 <__sf_fake_stdout>
    28da:	00f49563          	bne	s1,a5,28e4 <_vfiprintf_r+0x11c>
    28de:	0089a483          	lw	s1,8(s3)
    28e2:	b705                	j	2802 <_vfiprintf_r+0x3a>
    28e4:	00002797          	auipc	a5,0x2
    28e8:	8b078793          	addi	a5,a5,-1872 # 4194 <__sf_fake_stderr>
    28ec:	f0f49be3          	bne	s1,a5,2802 <_vfiprintf_r+0x3a>
    28f0:	00c9a483          	lw	s1,12(s3)
    28f4:	b739                	j	2802 <_vfiprintf_r+0x3a>
    28f6:	85a6                	mv	a1,s1
    28f8:	854e                	mv	a0,s3
    28fa:	25f9                	jal	2fc8 <__swsetup_r>
    28fc:	d909                	beqz	a0,280e <_vfiprintf_r+0x46>
    28fe:	557d                	li	a0,-1
    2900:	40fa                	lw	ra,156(sp)
    2902:	446a                	lw	s0,152(sp)
    2904:	44da                	lw	s1,148(sp)
    2906:	494a                	lw	s2,144(sp)
    2908:	49ba                	lw	s3,140(sp)
    290a:	4a2a                	lw	s4,136(sp)
    290c:	4a9a                	lw	s5,132(sp)
    290e:	4b0a                	lw	s6,128(sp)
    2910:	5bf6                	lw	s7,124(sp)
    2912:	5c66                	lw	s8,120(sp)
    2914:	5cd6                	lw	s9,116(sp)
    2916:	610d                	addi	sp,sp,160
    2918:	8082                	ret
    291a:	0405                	addi	s0,s0,1
    291c:	bf21                	j	2834 <_vfiprintf_r+0x6c>
    291e:	41550533          	sub	a0,a0,s5
    2922:	00ac1533          	sll	a0,s8,a0
    2926:	8fc9                	or	a5,a5,a0
    2928:	c83e                	sw	a5,16(sp)
    292a:	8922                	mv	s2,s0
    292c:	b7b1                	j	2878 <_vfiprintf_r+0xb0>
    292e:	4732                	lw	a4,12(sp)
    2930:	00470693          	addi	a3,a4,4
    2934:	4318                	lw	a4,0(a4)
    2936:	c636                	sw	a3,12(sp)
    2938:	02074963          	bltz	a4,296a <_vfiprintf_r+0x1a2>
    293c:	ce3a                	sw	a4,28(sp)
    293e:	00044703          	lbu	a4,0(s0)
    2942:	02e00793          	li	a5,46
    2946:	04f71f63          	bne	a4,a5,29a4 <_vfiprintf_r+0x1dc>
    294a:	00144703          	lbu	a4,1(s0)
    294e:	02a00793          	li	a5,42
    2952:	02f71b63          	bne	a4,a5,2988 <_vfiprintf_r+0x1c0>
    2956:	47b2                	lw	a5,12(sp)
    2958:	0409                	addi	s0,s0,2
    295a:	00478713          	addi	a4,a5,4
    295e:	439c                	lw	a5,0(a5)
    2960:	c63a                	sw	a4,12(sp)
    2962:	0207c163          	bltz	a5,2984 <_vfiprintf_r+0x1bc>
    2966:	ca3e                	sw	a5,20(sp)
    2968:	a835                	j	29a4 <_vfiprintf_r+0x1dc>
    296a:	40e00733          	neg	a4,a4
    296e:	0027e793          	ori	a5,a5,2
    2972:	ce3a                	sw	a4,28(sp)
    2974:	c83e                	sw	a5,16(sp)
    2976:	b7e1                	j	293e <_vfiprintf_r+0x176>
    2978:	036787b3          	mul	a5,a5,s6
    297c:	4685                	li	a3,1
    297e:	842e                	mv	s0,a1
    2980:	97ba                	add	a5,a5,a4
    2982:	bf2d                	j	28bc <_vfiprintf_r+0xf4>
    2984:	57fd                	li	a5,-1
    2986:	b7c5                	j	2966 <_vfiprintf_r+0x19e>
    2988:	0405                	addi	s0,s0,1
    298a:	ca02                	sw	zero,20(sp)
    298c:	4681                	li	a3,0
    298e:	4781                	li	a5,0
    2990:	4625                	li	a2,9
    2992:	00044703          	lbu	a4,0(s0)
    2996:	00140593          	addi	a1,s0,1
    299a:	fd070713          	addi	a4,a4,-48
    299e:	06e67863          	bgeu	a2,a4,2a0e <_vfiprintf_r+0x246>
    29a2:	f2f1                	bnez	a3,2966 <_vfiprintf_r+0x19e>
    29a4:	00044583          	lbu	a1,0(s0)
    29a8:	460d                	li	a2,3
    29aa:	00002517          	auipc	a0,0x2
    29ae:	85250513          	addi	a0,a0,-1966 # 41fc <__sf_fake_stdout+0x28>
    29b2:	215000ef          	jal	ra,33c6 <memchr>
    29b6:	cd11                	beqz	a0,29d2 <_vfiprintf_r+0x20a>
    29b8:	00002797          	auipc	a5,0x2
    29bc:	84478793          	addi	a5,a5,-1980 # 41fc <__sf_fake_stdout+0x28>
    29c0:	8d1d                	sub	a0,a0,a5
    29c2:	04000793          	li	a5,64
    29c6:	00a797b3          	sll	a5,a5,a0
    29ca:	4542                	lw	a0,16(sp)
    29cc:	0405                	addi	s0,s0,1
    29ce:	8d5d                	or	a0,a0,a5
    29d0:	c82a                	sw	a0,16(sp)
    29d2:	00044583          	lbu	a1,0(s0)
    29d6:	4619                	li	a2,6
    29d8:	00002517          	auipc	a0,0x2
    29dc:	82850513          	addi	a0,a0,-2008 # 4200 <__sf_fake_stdout+0x2c>
    29e0:	00140913          	addi	s2,s0,1
    29e4:	02b10423          	sb	a1,40(sp)
    29e8:	1df000ef          	jal	ra,33c6 <memchr>
    29ec:	c13d                	beqz	a0,2a52 <_vfiprintf_r+0x28a>
    29ee:	ffffd797          	auipc	a5,0xffffd
    29f2:	61278793          	addi	a5,a5,1554 # 0 <_sinit>
    29f6:	e795                	bnez	a5,2a22 <_vfiprintf_r+0x25a>
    29f8:	4742                	lw	a4,16(sp)
    29fa:	47b2                	lw	a5,12(sp)
    29fc:	10077713          	andi	a4,a4,256
    2a00:	cf09                	beqz	a4,2a1a <_vfiprintf_r+0x252>
    2a02:	0791                	addi	a5,a5,4
    2a04:	c63e                	sw	a5,12(sp)
    2a06:	5792                	lw	a5,36(sp)
    2a08:	97d2                	add	a5,a5,s4
    2a0a:	d23e                	sw	a5,36(sp)
    2a0c:	b51d                	j	2832 <_vfiprintf_r+0x6a>
    2a0e:	036787b3          	mul	a5,a5,s6
    2a12:	4685                	li	a3,1
    2a14:	842e                	mv	s0,a1
    2a16:	97ba                	add	a5,a5,a4
    2a18:	bfad                	j	2992 <_vfiprintf_r+0x1ca>
    2a1a:	079d                	addi	a5,a5,7
    2a1c:	9be1                	andi	a5,a5,-8
    2a1e:	07a1                	addi	a5,a5,8
    2a20:	b7d5                	j	2a04 <_vfiprintf_r+0x23c>
    2a22:	0078                	addi	a4,sp,12
    2a24:	00000697          	auipc	a3,0x0
    2a28:	d6268693          	addi	a3,a3,-670 # 2786 <__sfputs_r>
    2a2c:	8626                	mv	a2,s1
    2a2e:	080c                	addi	a1,sp,16
    2a30:	854e                	mv	a0,s3
    2a32:	00000097          	auipc	ra,0x0
    2a36:	000000e7          	jalr	zero # 0 <_sinit>
    2a3a:	57fd                	li	a5,-1
    2a3c:	8a2a                	mv	s4,a0
    2a3e:	fcf514e3          	bne	a0,a5,2a06 <_vfiprintf_r+0x23e>
    2a42:	00c4d783          	lhu	a5,12(s1)
    2a46:	0407f793          	andi	a5,a5,64
    2a4a:	ea079ae3          	bnez	a5,28fe <_vfiprintf_r+0x136>
    2a4e:	5512                	lw	a0,36(sp)
    2a50:	bd45                	j	2900 <_vfiprintf_r+0x138>
    2a52:	0078                	addi	a4,sp,12
    2a54:	00000697          	auipc	a3,0x0
    2a58:	d3268693          	addi	a3,a3,-718 # 2786 <__sfputs_r>
    2a5c:	8626                	mv	a2,s1
    2a5e:	080c                	addi	a1,sp,16
    2a60:	854e                	mv	a0,s3
    2a62:	2a01                	jal	2b72 <_printf_i>
    2a64:	bfd9                	j	2a3a <_vfiprintf_r+0x272>

00002a66 <_printf_common>:
_printf_common():
    2a66:	7179                	addi	sp,sp,-48
    2a68:	ca56                	sw	s5,20(sp)
    2a6a:	499c                	lw	a5,16(a1)
    2a6c:	8aba                	mv	s5,a4
    2a6e:	4598                	lw	a4,8(a1)
    2a70:	d422                	sw	s0,40(sp)
    2a72:	d226                	sw	s1,36(sp)
    2a74:	ce4e                	sw	s3,28(sp)
    2a76:	cc52                	sw	s4,24(sp)
    2a78:	d606                	sw	ra,44(sp)
    2a7a:	d04a                	sw	s2,32(sp)
    2a7c:	c85a                	sw	s6,16(sp)
    2a7e:	c65e                	sw	s7,12(sp)
    2a80:	89aa                	mv	s3,a0
    2a82:	842e                	mv	s0,a1
    2a84:	84b2                	mv	s1,a2
    2a86:	8a36                	mv	s4,a3
    2a88:	00e7d363          	bge	a5,a4,2a8e <_printf_common+0x28>
    2a8c:	87ba                	mv	a5,a4
    2a8e:	c09c                	sw	a5,0(s1)
    2a90:	04344703          	lbu	a4,67(s0)
    2a94:	c319                	beqz	a4,2a9a <_printf_common+0x34>
    2a96:	0785                	addi	a5,a5,1
    2a98:	c09c                	sw	a5,0(s1)
    2a9a:	401c                	lw	a5,0(s0)
    2a9c:	0207f793          	andi	a5,a5,32
    2aa0:	c781                	beqz	a5,2aa8 <_printf_common+0x42>
    2aa2:	409c                	lw	a5,0(s1)
    2aa4:	0789                	addi	a5,a5,2
    2aa6:	c09c                	sw	a5,0(s1)
    2aa8:	00042903          	lw	s2,0(s0)
    2aac:	00697913          	andi	s2,s2,6
    2ab0:	00091a63          	bnez	s2,2ac4 <_printf_common+0x5e>
    2ab4:	01940b13          	addi	s6,s0,25
    2ab8:	5bfd                	li	s7,-1
    2aba:	445c                	lw	a5,12(s0)
    2abc:	4098                	lw	a4,0(s1)
    2abe:	8f99                	sub	a5,a5,a4
    2ac0:	04f94c63          	blt	s2,a5,2b18 <_printf_common+0xb2>
    2ac4:	401c                	lw	a5,0(s0)
    2ac6:	04344683          	lbu	a3,67(s0)
    2aca:	0207f793          	andi	a5,a5,32
    2ace:	00d036b3          	snez	a3,a3
    2ad2:	eba5                	bnez	a5,2b42 <_printf_common+0xdc>
    2ad4:	04340613          	addi	a2,s0,67
    2ad8:	85d2                	mv	a1,s4
    2ada:	854e                	mv	a0,s3
    2adc:	9a82                	jalr	s5
    2ade:	57fd                	li	a5,-1
    2ae0:	04f50363          	beq	a0,a5,2b26 <_printf_common+0xc0>
    2ae4:	401c                	lw	a5,0(s0)
    2ae6:	4611                	li	a2,4
    2ae8:	4098                	lw	a4,0(s1)
    2aea:	8b99                	andi	a5,a5,6
    2aec:	4454                	lw	a3,12(s0)
    2aee:	4481                	li	s1,0
    2af0:	00c79763          	bne	a5,a2,2afe <_printf_common+0x98>
    2af4:	40e684b3          	sub	s1,a3,a4
    2af8:	0004d363          	bgez	s1,2afe <_printf_common+0x98>
    2afc:	4481                	li	s1,0
    2afe:	441c                	lw	a5,8(s0)
    2b00:	4818                	lw	a4,16(s0)
    2b02:	00f75463          	bge	a4,a5,2b0a <_printf_common+0xa4>
    2b06:	8f99                	sub	a5,a5,a4
    2b08:	94be                	add	s1,s1,a5
    2b0a:	4901                	li	s2,0
    2b0c:	0469                	addi	s0,s0,26
    2b0e:	5b7d                	li	s6,-1
    2b10:	05249863          	bne	s1,s2,2b60 <_printf_common+0xfa>
    2b14:	4501                	li	a0,0
    2b16:	a809                	j	2b28 <_printf_common+0xc2>
    2b18:	4685                	li	a3,1
    2b1a:	865a                	mv	a2,s6
    2b1c:	85d2                	mv	a1,s4
    2b1e:	854e                	mv	a0,s3
    2b20:	9a82                	jalr	s5
    2b22:	01751e63          	bne	a0,s7,2b3e <_printf_common+0xd8>
    2b26:	557d                	li	a0,-1
    2b28:	50b2                	lw	ra,44(sp)
    2b2a:	5422                	lw	s0,40(sp)
    2b2c:	5492                	lw	s1,36(sp)
    2b2e:	5902                	lw	s2,32(sp)
    2b30:	49f2                	lw	s3,28(sp)
    2b32:	4a62                	lw	s4,24(sp)
    2b34:	4ad2                	lw	s5,20(sp)
    2b36:	4b42                	lw	s6,16(sp)
    2b38:	4bb2                	lw	s7,12(sp)
    2b3a:	6145                	addi	sp,sp,48
    2b3c:	8082                	ret
    2b3e:	0905                	addi	s2,s2,1
    2b40:	bfad                	j	2aba <_printf_common+0x54>
    2b42:	00d40733          	add	a4,s0,a3
    2b46:	03000613          	li	a2,48
    2b4a:	04c701a3          	sb	a2,67(a4)
    2b4e:	04544703          	lbu	a4,69(s0)
    2b52:	00168793          	addi	a5,a3,1
    2b56:	97a2                	add	a5,a5,s0
    2b58:	0689                	addi	a3,a3,2
    2b5a:	04e781a3          	sb	a4,67(a5)
    2b5e:	bf9d                	j	2ad4 <_printf_common+0x6e>
    2b60:	4685                	li	a3,1
    2b62:	8622                	mv	a2,s0
    2b64:	85d2                	mv	a1,s4
    2b66:	854e                	mv	a0,s3
    2b68:	9a82                	jalr	s5
    2b6a:	fb650ee3          	beq	a0,s6,2b26 <_printf_common+0xc0>
    2b6e:	0905                	addi	s2,s2,1
    2b70:	b745                	j	2b10 <_printf_common+0xaa>

00002b72 <_printf_i>:
_printf_i():
    2b72:	7179                	addi	sp,sp,-48
    2b74:	d422                	sw	s0,40(sp)
    2b76:	d226                	sw	s1,36(sp)
    2b78:	d04a                	sw	s2,32(sp)
    2b7a:	ce4e                	sw	s3,28(sp)
    2b7c:	d606                	sw	ra,44(sp)
    2b7e:	cc52                	sw	s4,24(sp)
    2b80:	ca56                	sw	s5,20(sp)
    2b82:	c85a                	sw	s6,16(sp)
    2b84:	89b6                	mv	s3,a3
    2b86:	0185c683          	lbu	a3,24(a1)
    2b8a:	06900793          	li	a5,105
    2b8e:	8932                	mv	s2,a2
    2b90:	84aa                	mv	s1,a0
    2b92:	842e                	mv	s0,a1
    2b94:	04358613          	addi	a2,a1,67
    2b98:	02f68d63          	beq	a3,a5,2bd2 <_printf_i+0x60>
    2b9c:	06d7e263          	bltu	a5,a3,2c00 <_printf_i+0x8e>
    2ba0:	05800793          	li	a5,88
    2ba4:	18f68963          	beq	a3,a5,2d36 <_printf_i+0x1c4>
    2ba8:	00d7ed63          	bltu	a5,a3,2bc2 <_printf_i+0x50>
    2bac:	22068263          	beqz	a3,2dd0 <_printf_i+0x25e>
    2bb0:	04300793          	li	a5,67
    2bb4:	0af68f63          	beq	a3,a5,2c72 <_printf_i+0x100>
    2bb8:	04240a93          	addi	s5,s0,66
    2bbc:	04d40123          	sb	a3,66(s0)
    2bc0:	a0d1                	j	2c84 <_printf_i+0x112>
    2bc2:	06300793          	li	a5,99
    2bc6:	0af68663          	beq	a3,a5,2c72 <_printf_i+0x100>
    2bca:	06400793          	li	a5,100
    2bce:	fef695e3          	bne	a3,a5,2bb8 <_printf_i+0x46>
    2bd2:	401c                	lw	a5,0(s0)
    2bd4:	4308                	lw	a0,0(a4)
    2bd6:	0807f693          	andi	a3,a5,128
    2bda:	00450593          	addi	a1,a0,4
    2bde:	c6cd                	beqz	a3,2c88 <_printf_i+0x116>
    2be0:	411c                	lw	a5,0(a0)
    2be2:	c30c                	sw	a1,0(a4)
    2be4:	0007d863          	bgez	a5,2bf4 <_printf_i+0x82>
    2be8:	02d00713          	li	a4,45
    2bec:	40f007b3          	neg	a5,a5
    2bf0:	04e401a3          	sb	a4,67(s0)
    2bf4:	00001697          	auipc	a3,0x1
    2bf8:	61468693          	addi	a3,a3,1556 # 4208 <__sf_fake_stdout+0x34>
    2bfc:	4729                	li	a4,10
    2bfe:	a875                	j	2cba <_printf_i+0x148>
    2c00:	07000793          	li	a5,112
    2c04:	16f68563          	beq	a3,a5,2d6e <_printf_i+0x1fc>
    2c08:	02d7e563          	bltu	a5,a3,2c32 <_printf_i+0xc0>
    2c0c:	06e00793          	li	a5,110
    2c10:	18f68c63          	beq	a3,a5,2da8 <_printf_i+0x236>
    2c14:	06f00793          	li	a5,111
    2c18:	faf690e3          	bne	a3,a5,2bb8 <_printf_i+0x46>
    2c1c:	400c                	lw	a1,0(s0)
    2c1e:	431c                	lw	a5,0(a4)
    2c20:	0805f813          	andi	a6,a1,128
    2c24:	00478513          	addi	a0,a5,4
    2c28:	06080863          	beqz	a6,2c98 <_printf_i+0x126>
    2c2c:	c308                	sw	a0,0(a4)
    2c2e:	439c                	lw	a5,0(a5)
    2c30:	a895                	j	2ca4 <_printf_i+0x132>
    2c32:	07500793          	li	a5,117
    2c36:	fef683e3          	beq	a3,a5,2c1c <_printf_i+0xaa>
    2c3a:	07800793          	li	a5,120
    2c3e:	12f68c63          	beq	a3,a5,2d76 <_printf_i+0x204>
    2c42:	07300793          	li	a5,115
    2c46:	f6f699e3          	bne	a3,a5,2bb8 <_printf_i+0x46>
    2c4a:	431c                	lw	a5,0(a4)
    2c4c:	41d0                	lw	a2,4(a1)
    2c4e:	4581                	li	a1,0
    2c50:	00478693          	addi	a3,a5,4
    2c54:	c314                	sw	a3,0(a4)
    2c56:	0007aa83          	lw	s5,0(a5)
    2c5a:	8556                	mv	a0,s5
    2c5c:	76a000ef          	jal	ra,33c6 <memchr>
    2c60:	c501                	beqz	a0,2c68 <_printf_i+0xf6>
    2c62:	41550533          	sub	a0,a0,s5
    2c66:	c048                	sw	a0,4(s0)
    2c68:	405c                	lw	a5,4(s0)
    2c6a:	c81c                	sw	a5,16(s0)
    2c6c:	040401a3          	sb	zero,67(s0)
    2c70:	a871                	j	2d0c <_printf_i+0x19a>
    2c72:	431c                	lw	a5,0(a4)
    2c74:	04240a93          	addi	s5,s0,66
    2c78:	00478693          	addi	a3,a5,4
    2c7c:	439c                	lw	a5,0(a5)
    2c7e:	c314                	sw	a3,0(a4)
    2c80:	04f40123          	sb	a5,66(s0)
    2c84:	4785                	li	a5,1
    2c86:	b7d5                	j	2c6a <_printf_i+0xf8>
    2c88:	0407f693          	andi	a3,a5,64
    2c8c:	411c                	lw	a5,0(a0)
    2c8e:	c30c                	sw	a1,0(a4)
    2c90:	dab1                	beqz	a3,2be4 <_printf_i+0x72>
    2c92:	07c2                	slli	a5,a5,0x10
    2c94:	87c1                	srai	a5,a5,0x10
    2c96:	b7b9                	j	2be4 <_printf_i+0x72>
    2c98:	0405f593          	andi	a1,a1,64
    2c9c:	c308                	sw	a0,0(a4)
    2c9e:	d9c1                	beqz	a1,2c2e <_printf_i+0xbc>
    2ca0:	0007d783          	lhu	a5,0(a5)
    2ca4:	06f00713          	li	a4,111
    2ca8:	0ee68863          	beq	a3,a4,2d98 <_printf_i+0x226>
    2cac:	00001697          	auipc	a3,0x1
    2cb0:	55c68693          	addi	a3,a3,1372 # 4208 <__sf_fake_stdout+0x34>
    2cb4:	4729                	li	a4,10
    2cb6:	040401a3          	sb	zero,67(s0)
    2cba:	404c                	lw	a1,4(s0)
    2cbc:	c40c                	sw	a1,8(s0)
    2cbe:	0005c563          	bltz	a1,2cc8 <_printf_i+0x156>
    2cc2:	4008                	lw	a0,0(s0)
    2cc4:	996d                	andi	a0,a0,-5
    2cc6:	c008                	sw	a0,0(s0)
    2cc8:	e399                	bnez	a5,2cce <_printf_i+0x15c>
    2cca:	8ab2                	mv	s5,a2
    2ccc:	cd91                	beqz	a1,2ce8 <_printf_i+0x176>
    2cce:	8ab2                	mv	s5,a2
    2cd0:	02e7f5b3          	remu	a1,a5,a4
    2cd4:	1afd                	addi	s5,s5,-1
    2cd6:	95b6                	add	a1,a1,a3
    2cd8:	0005c583          	lbu	a1,0(a1)
    2cdc:	00ba8023          	sb	a1,0(s5)
    2ce0:	02e7d5b3          	divu	a1,a5,a4
    2ce4:	0ce7f063          	bgeu	a5,a4,2da4 <_printf_i+0x232>
    2ce8:	47a1                	li	a5,8
    2cea:	00f71e63          	bne	a4,a5,2d06 <_printf_i+0x194>
    2cee:	401c                	lw	a5,0(s0)
    2cf0:	8b85                	andi	a5,a5,1
    2cf2:	cb91                	beqz	a5,2d06 <_printf_i+0x194>
    2cf4:	4058                	lw	a4,4(s0)
    2cf6:	481c                	lw	a5,16(s0)
    2cf8:	00e7c763          	blt	a5,a4,2d06 <_printf_i+0x194>
    2cfc:	03000793          	li	a5,48
    2d00:	fefa8fa3          	sb	a5,-1(s5)
    2d04:	1afd                	addi	s5,s5,-1
    2d06:	41560633          	sub	a2,a2,s5
    2d0a:	c810                	sw	a2,16(s0)
    2d0c:	874e                	mv	a4,s3
    2d0e:	86ca                	mv	a3,s2
    2d10:	0070                	addi	a2,sp,12
    2d12:	85a2                	mv	a1,s0
    2d14:	8526                	mv	a0,s1
    2d16:	d51ff0ef          	jal	ra,2a66 <_printf_common>
    2d1a:	5a7d                	li	s4,-1
    2d1c:	0b451e63          	bne	a0,s4,2dd8 <_printf_i+0x266>
    2d20:	557d                	li	a0,-1
    2d22:	50b2                	lw	ra,44(sp)
    2d24:	5422                	lw	s0,40(sp)
    2d26:	5492                	lw	s1,36(sp)
    2d28:	5902                	lw	s2,32(sp)
    2d2a:	49f2                	lw	s3,28(sp)
    2d2c:	4a62                	lw	s4,24(sp)
    2d2e:	4ad2                	lw	s5,20(sp)
    2d30:	4b42                	lw	s6,16(sp)
    2d32:	6145                	addi	sp,sp,48
    2d34:	8082                	ret
    2d36:	04d582a3          	sb	a3,69(a1)
    2d3a:	00001697          	auipc	a3,0x1
    2d3e:	4ce68693          	addi	a3,a3,1230 # 4208 <__sf_fake_stdout+0x34>
    2d42:	400c                	lw	a1,0(s0)
    2d44:	4308                	lw	a0,0(a4)
    2d46:	0805f813          	andi	a6,a1,128
    2d4a:	411c                	lw	a5,0(a0)
    2d4c:	0511                	addi	a0,a0,4
    2d4e:	02080d63          	beqz	a6,2d88 <_printf_i+0x216>
    2d52:	c308                	sw	a0,0(a4)
    2d54:	0015f713          	andi	a4,a1,1
    2d58:	c701                	beqz	a4,2d60 <_printf_i+0x1ee>
    2d5a:	0205e593          	ori	a1,a1,32
    2d5e:	c00c                	sw	a1,0(s0)
    2d60:	4741                	li	a4,16
    2d62:	fbb1                	bnez	a5,2cb6 <_printf_i+0x144>
    2d64:	400c                	lw	a1,0(s0)
    2d66:	fdf5f593          	andi	a1,a1,-33
    2d6a:	c00c                	sw	a1,0(s0)
    2d6c:	b7a9                	j	2cb6 <_printf_i+0x144>
    2d6e:	419c                	lw	a5,0(a1)
    2d70:	0207e793          	ori	a5,a5,32
    2d74:	c19c                	sw	a5,0(a1)
    2d76:	07800793          	li	a5,120
    2d7a:	04f402a3          	sb	a5,69(s0)
    2d7e:	00001697          	auipc	a3,0x1
    2d82:	49e68693          	addi	a3,a3,1182 # 421c <__sf_fake_stdout+0x48>
    2d86:	bf75                	j	2d42 <_printf_i+0x1d0>
    2d88:	0405f813          	andi	a6,a1,64
    2d8c:	c308                	sw	a0,0(a4)
    2d8e:	fc0803e3          	beqz	a6,2d54 <_printf_i+0x1e2>
    2d92:	07c2                	slli	a5,a5,0x10
    2d94:	83c1                	srli	a5,a5,0x10
    2d96:	bf7d                	j	2d54 <_printf_i+0x1e2>
    2d98:	00001697          	auipc	a3,0x1
    2d9c:	47068693          	addi	a3,a3,1136 # 4208 <__sf_fake_stdout+0x34>
    2da0:	4721                	li	a4,8
    2da2:	bf11                	j	2cb6 <_printf_i+0x144>
    2da4:	87ae                	mv	a5,a1
    2da6:	b72d                	j	2cd0 <_printf_i+0x15e>
    2da8:	4194                	lw	a3,0(a1)
    2daa:	431c                	lw	a5,0(a4)
    2dac:	49cc                	lw	a1,20(a1)
    2dae:	0806f813          	andi	a6,a3,128
    2db2:	00478513          	addi	a0,a5,4
    2db6:	00080663          	beqz	a6,2dc2 <_printf_i+0x250>
    2dba:	c308                	sw	a0,0(a4)
    2dbc:	439c                	lw	a5,0(a5)
    2dbe:	c38c                	sw	a1,0(a5)
    2dc0:	a801                	j	2dd0 <_printf_i+0x25e>
    2dc2:	c308                	sw	a0,0(a4)
    2dc4:	0406f693          	andi	a3,a3,64
    2dc8:	439c                	lw	a5,0(a5)
    2dca:	daf5                	beqz	a3,2dbe <_printf_i+0x24c>
    2dcc:	00b79023          	sh	a1,0(a5)
    2dd0:	00042823          	sw	zero,16(s0)
    2dd4:	8ab2                	mv	s5,a2
    2dd6:	bf1d                	j	2d0c <_printf_i+0x19a>
    2dd8:	4814                	lw	a3,16(s0)
    2dda:	8656                	mv	a2,s5
    2ddc:	85ca                	mv	a1,s2
    2dde:	8526                	mv	a0,s1
    2de0:	9982                	jalr	s3
    2de2:	f3450fe3          	beq	a0,s4,2d20 <_printf_i+0x1ae>
    2de6:	401c                	lw	a5,0(s0)
    2de8:	8b89                	andi	a5,a5,2
    2dea:	e78d                	bnez	a5,2e14 <_printf_i+0x2a2>
    2dec:	47b2                	lw	a5,12(sp)
    2dee:	4448                	lw	a0,12(s0)
    2df0:	f2f559e3          	bge	a0,a5,2d22 <_printf_i+0x1b0>
    2df4:	853e                	mv	a0,a5
    2df6:	b735                	j	2d22 <_printf_i+0x1b0>
    2df8:	4685                	li	a3,1
    2dfa:	8656                	mv	a2,s5
    2dfc:	85ca                	mv	a1,s2
    2dfe:	8526                	mv	a0,s1
    2e00:	9982                	jalr	s3
    2e02:	f1650fe3          	beq	a0,s6,2d20 <_printf_i+0x1ae>
    2e06:	0a05                	addi	s4,s4,1
    2e08:	445c                	lw	a5,12(s0)
    2e0a:	4732                	lw	a4,12(sp)
    2e0c:	8f99                	sub	a5,a5,a4
    2e0e:	fefa45e3          	blt	s4,a5,2df8 <_printf_i+0x286>
    2e12:	bfe9                	j	2dec <_printf_i+0x27a>
    2e14:	4a01                	li	s4,0
    2e16:	01940a93          	addi	s5,s0,25
    2e1a:	5b7d                	li	s6,-1
    2e1c:	b7f5                	j	2e08 <_printf_i+0x296>

00002e1e <__sread>:
__sread():
    2e1e:	1141                	addi	sp,sp,-16
    2e20:	c422                	sw	s0,8(sp)
    2e22:	842e                	mv	s0,a1
    2e24:	00e59583          	lh	a1,14(a1)
    2e28:	c606                	sw	ra,12(sp)
    2e2a:	2b5d                	jal	33e0 <_read_r>
    2e2c:	00054963          	bltz	a0,2e3e <__sread+0x20>
    2e30:	487c                	lw	a5,84(s0)
    2e32:	97aa                	add	a5,a5,a0
    2e34:	c87c                	sw	a5,84(s0)
    2e36:	40b2                	lw	ra,12(sp)
    2e38:	4422                	lw	s0,8(sp)
    2e3a:	0141                	addi	sp,sp,16
    2e3c:	8082                	ret
    2e3e:	00c45783          	lhu	a5,12(s0)
    2e42:	777d                	lui	a4,0xfffff
    2e44:	177d                	addi	a4,a4,-1
    2e46:	8ff9                	and	a5,a5,a4
    2e48:	00f41623          	sh	a5,12(s0)
    2e4c:	b7ed                	j	2e36 <__sread+0x18>

00002e4e <__swrite>:
__swrite():
    2e4e:	00c5d783          	lhu	a5,12(a1)
    2e52:	1101                	addi	sp,sp,-32
    2e54:	cc22                	sw	s0,24(sp)
    2e56:	ca26                	sw	s1,20(sp)
    2e58:	c84a                	sw	s2,16(sp)
    2e5a:	c64e                	sw	s3,12(sp)
    2e5c:	ce06                	sw	ra,28(sp)
    2e5e:	1007f793          	andi	a5,a5,256
    2e62:	84aa                	mv	s1,a0
    2e64:	842e                	mv	s0,a1
    2e66:	8932                	mv	s2,a2
    2e68:	89b6                	mv	s3,a3
    2e6a:	c791                	beqz	a5,2e76 <__swrite+0x28>
    2e6c:	00e59583          	lh	a1,14(a1)
    2e70:	4689                	li	a3,2
    2e72:	4601                	li	a2,0
    2e74:	2905                	jal	32a4 <_lseek_r>
    2e76:	00c45783          	lhu	a5,12(s0)
    2e7a:	777d                	lui	a4,0xfffff
    2e7c:	177d                	addi	a4,a4,-1
    2e7e:	8ff9                	and	a5,a5,a4
    2e80:	00f41623          	sh	a5,12(s0)
    2e84:	00e41583          	lh	a1,14(s0)
    2e88:	4462                	lw	s0,24(sp)
    2e8a:	40f2                	lw	ra,28(sp)
    2e8c:	86ce                	mv	a3,s3
    2e8e:	864a                	mv	a2,s2
    2e90:	49b2                	lw	s3,12(sp)
    2e92:	4942                	lw	s2,16(sp)
    2e94:	8526                	mv	a0,s1
    2e96:	44d2                	lw	s1,20(sp)
    2e98:	6105                	addi	sp,sp,32
    2e9a:	a201                	j	2f9a <_write_r>

00002e9c <__sseek>:
__sseek():
    2e9c:	1141                	addi	sp,sp,-16
    2e9e:	c422                	sw	s0,8(sp)
    2ea0:	842e                	mv	s0,a1
    2ea2:	00e59583          	lh	a1,14(a1)
    2ea6:	c606                	sw	ra,12(sp)
    2ea8:	2ef5                	jal	32a4 <_lseek_r>
    2eaa:	57fd                	li	a5,-1
    2eac:	00c45703          	lhu	a4,12(s0)
    2eb0:	00f51b63          	bne	a0,a5,2ec6 <__sseek+0x2a>
    2eb4:	77fd                	lui	a5,0xfffff
    2eb6:	17fd                	addi	a5,a5,-1
    2eb8:	8ff9                	and	a5,a5,a4
    2eba:	00f41623          	sh	a5,12(s0)
    2ebe:	40b2                	lw	ra,12(sp)
    2ec0:	4422                	lw	s0,8(sp)
    2ec2:	0141                	addi	sp,sp,16
    2ec4:	8082                	ret
    2ec6:	6785                	lui	a5,0x1
    2ec8:	8fd9                	or	a5,a5,a4
    2eca:	00f41623          	sh	a5,12(s0)
    2ece:	c868                	sw	a0,84(s0)
    2ed0:	b7fd                	j	2ebe <__sseek+0x22>

00002ed2 <__sclose>:
__sclose():
    2ed2:	00e59583          	lh	a1,14(a1)
    2ed6:	a409                	j	30d8 <_close_r>

00002ed8 <__swbuf_r>:
__swbuf_r():
    2ed8:	1101                	addi	sp,sp,-32
    2eda:	cc22                	sw	s0,24(sp)
    2edc:	ca26                	sw	s1,20(sp)
    2ede:	c84a                	sw	s2,16(sp)
    2ee0:	ce06                	sw	ra,28(sp)
    2ee2:	c64e                	sw	s3,12(sp)
    2ee4:	84aa                	mv	s1,a0
    2ee6:	892e                	mv	s2,a1
    2ee8:	8432                	mv	s0,a2
    2eea:	c509                	beqz	a0,2ef4 <__swbuf_r+0x1c>
    2eec:	4d1c                	lw	a5,24(a0)
    2eee:	e399                	bnez	a5,2ef4 <__swbuf_r+0x1c>
    2ef0:	ef4ff0ef          	jal	ra,25e4 <__sinit>
    2ef4:	00001797          	auipc	a5,0x1
    2ef8:	2c078793          	addi	a5,a5,704 # 41b4 <__sf_fake_stdin>
    2efc:	06f41963          	bne	s0,a5,2f6e <__swbuf_r+0x96>
    2f00:	40c0                	lw	s0,4(s1)
    2f02:	4c1c                	lw	a5,24(s0)
    2f04:	c41c                	sw	a5,8(s0)
    2f06:	00c45783          	lhu	a5,12(s0)
    2f0a:	8ba1                	andi	a5,a5,8
    2f0c:	c3c9                	beqz	a5,2f8e <__swbuf_r+0xb6>
    2f0e:	481c                	lw	a5,16(s0)
    2f10:	cfbd                	beqz	a5,2f8e <__swbuf_r+0xb6>
    2f12:	481c                	lw	a5,16(s0)
    2f14:	4008                	lw	a0,0(s0)
    2f16:	0ff97993          	andi	s3,s2,255
    2f1a:	0ff97913          	andi	s2,s2,255
    2f1e:	8d1d                	sub	a0,a0,a5
    2f20:	485c                	lw	a5,20(s0)
    2f22:	00f54663          	blt	a0,a5,2f2e <__swbuf_r+0x56>
    2f26:	85a2                	mv	a1,s0
    2f28:	8526                	mv	a0,s1
    2f2a:	2e11                	jal	323e <_fflush_r>
    2f2c:	e52d                	bnez	a0,2f96 <__swbuf_r+0xbe>
    2f2e:	441c                	lw	a5,8(s0)
    2f30:	0505                	addi	a0,a0,1
    2f32:	17fd                	addi	a5,a5,-1
    2f34:	c41c                	sw	a5,8(s0)
    2f36:	401c                	lw	a5,0(s0)
    2f38:	00178713          	addi	a4,a5,1
    2f3c:	c018                	sw	a4,0(s0)
    2f3e:	01378023          	sb	s3,0(a5)
    2f42:	485c                	lw	a5,20(s0)
    2f44:	00a78963          	beq	a5,a0,2f56 <__swbuf_r+0x7e>
    2f48:	00c45783          	lhu	a5,12(s0)
    2f4c:	8b85                	andi	a5,a5,1
    2f4e:	cb81                	beqz	a5,2f5e <__swbuf_r+0x86>
    2f50:	47a9                	li	a5,10
    2f52:	00f91663          	bne	s2,a5,2f5e <__swbuf_r+0x86>
    2f56:	85a2                	mv	a1,s0
    2f58:	8526                	mv	a0,s1
    2f5a:	24d5                	jal	323e <_fflush_r>
    2f5c:	ed0d                	bnez	a0,2f96 <__swbuf_r+0xbe>
    2f5e:	40f2                	lw	ra,28(sp)
    2f60:	4462                	lw	s0,24(sp)
    2f62:	854a                	mv	a0,s2
    2f64:	44d2                	lw	s1,20(sp)
    2f66:	4942                	lw	s2,16(sp)
    2f68:	49b2                	lw	s3,12(sp)
    2f6a:	6105                	addi	sp,sp,32
    2f6c:	8082                	ret
    2f6e:	00001797          	auipc	a5,0x1
    2f72:	26678793          	addi	a5,a5,614 # 41d4 <__sf_fake_stdout>
    2f76:	00f41463          	bne	s0,a5,2f7e <__swbuf_r+0xa6>
    2f7a:	4480                	lw	s0,8(s1)
    2f7c:	b759                	j	2f02 <__swbuf_r+0x2a>
    2f7e:	00001797          	auipc	a5,0x1
    2f82:	21678793          	addi	a5,a5,534 # 4194 <__sf_fake_stderr>
    2f86:	f6f41ee3          	bne	s0,a5,2f02 <__swbuf_r+0x2a>
    2f8a:	44c0                	lw	s0,12(s1)
    2f8c:	bf9d                	j	2f02 <__swbuf_r+0x2a>
    2f8e:	85a2                	mv	a1,s0
    2f90:	8526                	mv	a0,s1
    2f92:	281d                	jal	2fc8 <__swsetup_r>
    2f94:	dd3d                	beqz	a0,2f12 <__swbuf_r+0x3a>
    2f96:	597d                	li	s2,-1
    2f98:	b7d9                	j	2f5e <__swbuf_r+0x86>

00002f9a <_write_r>:
_write_r():
    2f9a:	1141                	addi	sp,sp,-16
    2f9c:	c422                	sw	s0,8(sp)
    2f9e:	842a                	mv	s0,a0
    2fa0:	852e                	mv	a0,a1
    2fa2:	85b2                	mv	a1,a2
    2fa4:	8636                	mv	a2,a3
    2fa6:	8401aa23          	sw	zero,-1964(gp) # 200040b4 <errno>
    2faa:	c606                	sw	ra,12(sp)
    2fac:	ae8ff0ef          	jal	ra,2294 <_write>
    2fb0:	57fd                	li	a5,-1
    2fb2:	00f51763          	bne	a0,a5,2fc0 <_write_r+0x26>
    2fb6:	85418793          	addi	a5,gp,-1964 # 200040b4 <errno>
    2fba:	439c                	lw	a5,0(a5)
    2fbc:	c391                	beqz	a5,2fc0 <_write_r+0x26>
    2fbe:	c01c                	sw	a5,0(s0)
    2fc0:	40b2                	lw	ra,12(sp)
    2fc2:	4422                	lw	s0,8(sp)
    2fc4:	0141                	addi	sp,sp,16
    2fc6:	8082                	ret

00002fc8 <__swsetup_r>:
__swsetup_r():
    2fc8:	1141                	addi	sp,sp,-16
    2fca:	80c18793          	addi	a5,gp,-2036 # 2000406c <_impure_ptr>
    2fce:	c226                	sw	s1,4(sp)
    2fd0:	4384                	lw	s1,0(a5)
    2fd2:	c422                	sw	s0,8(sp)
    2fd4:	c04a                	sw	s2,0(sp)
    2fd6:	c606                	sw	ra,12(sp)
    2fd8:	892a                	mv	s2,a0
    2fda:	842e                	mv	s0,a1
    2fdc:	c491                	beqz	s1,2fe8 <__swsetup_r+0x20>
    2fde:	4c9c                	lw	a5,24(s1)
    2fe0:	e781                	bnez	a5,2fe8 <__swsetup_r+0x20>
    2fe2:	8526                	mv	a0,s1
    2fe4:	e00ff0ef          	jal	ra,25e4 <__sinit>
    2fe8:	00001797          	auipc	a5,0x1
    2fec:	1cc78793          	addi	a5,a5,460 # 41b4 <__sf_fake_stdin>
    2ff0:	02f41c63          	bne	s0,a5,3028 <__swsetup_r+0x60>
    2ff4:	40c0                	lw	s0,4(s1)
    2ff6:	00c41703          	lh	a4,12(s0)
    2ffa:	01071793          	slli	a5,a4,0x10
    2ffe:	83c1                	srli	a5,a5,0x10
    3000:	0087f693          	andi	a3,a5,8
    3004:	eebd                	bnez	a3,3082 <__swsetup_r+0xba>
    3006:	0107f693          	andi	a3,a5,16
    300a:	ee9d                	bnez	a3,3048 <__swsetup_r+0x80>
    300c:	47a5                	li	a5,9
    300e:	00f92023          	sw	a5,0(s2)
    3012:	04076713          	ori	a4,a4,64
    3016:	00e41623          	sh	a4,12(s0)
    301a:	557d                	li	a0,-1
    301c:	40b2                	lw	ra,12(sp)
    301e:	4422                	lw	s0,8(sp)
    3020:	4492                	lw	s1,4(sp)
    3022:	4902                	lw	s2,0(sp)
    3024:	0141                	addi	sp,sp,16
    3026:	8082                	ret
    3028:	00001797          	auipc	a5,0x1
    302c:	1ac78793          	addi	a5,a5,428 # 41d4 <__sf_fake_stdout>
    3030:	00f41463          	bne	s0,a5,3038 <__swsetup_r+0x70>
    3034:	4480                	lw	s0,8(s1)
    3036:	b7c1                	j	2ff6 <__swsetup_r+0x2e>
    3038:	00001797          	auipc	a5,0x1
    303c:	15c78793          	addi	a5,a5,348 # 4194 <__sf_fake_stderr>
    3040:	faf41be3          	bne	s0,a5,2ff6 <__swsetup_r+0x2e>
    3044:	44c0                	lw	s0,12(s1)
    3046:	bf45                	j	2ff6 <__swsetup_r+0x2e>
    3048:	8b91                	andi	a5,a5,4
    304a:	c795                	beqz	a5,3076 <__swsetup_r+0xae>
    304c:	584c                	lw	a1,52(s0)
    304e:	c991                	beqz	a1,3062 <__swsetup_r+0x9a>
    3050:	04440793          	addi	a5,s0,68
    3054:	00f58563          	beq	a1,a5,305e <__swsetup_r+0x96>
    3058:	854a                	mv	a0,s2
    305a:	af6ff0ef          	jal	ra,2350 <_free_r>
    305e:	02042a23          	sw	zero,52(s0)
    3062:	00c45783          	lhu	a5,12(s0)
    3066:	00042223          	sw	zero,4(s0)
    306a:	fdb7f793          	andi	a5,a5,-37
    306e:	00f41623          	sh	a5,12(s0)
    3072:	481c                	lw	a5,16(s0)
    3074:	c01c                	sw	a5,0(s0)
    3076:	00c45783          	lhu	a5,12(s0)
    307a:	0087e793          	ori	a5,a5,8
    307e:	00f41623          	sh	a5,12(s0)
    3082:	481c                	lw	a5,16(s0)
    3084:	ef81                	bnez	a5,309c <__swsetup_r+0xd4>
    3086:	00c45783          	lhu	a5,12(s0)
    308a:	20000713          	li	a4,512
    308e:	2807f793          	andi	a5,a5,640
    3092:	00e78563          	beq	a5,a4,309c <__swsetup_r+0xd4>
    3096:	85a2                	mv	a1,s0
    3098:	854a                	mv	a0,s2
    309a:	2479                	jal	3328 <__smakebuf_r>
    309c:	00c45783          	lhu	a5,12(s0)
    30a0:	0017f713          	andi	a4,a5,1
    30a4:	c705                	beqz	a4,30cc <__swsetup_r+0x104>
    30a6:	485c                	lw	a5,20(s0)
    30a8:	00042423          	sw	zero,8(s0)
    30ac:	40f007b3          	neg	a5,a5
    30b0:	cc1c                	sw	a5,24(s0)
    30b2:	481c                	lw	a5,16(s0)
    30b4:	4501                	li	a0,0
    30b6:	f3bd                	bnez	a5,301c <__swsetup_r+0x54>
    30b8:	00c41783          	lh	a5,12(s0)
    30bc:	0807f713          	andi	a4,a5,128
    30c0:	df31                	beqz	a4,301c <__swsetup_r+0x54>
    30c2:	0407e793          	ori	a5,a5,64
    30c6:	00f41623          	sh	a5,12(s0)
    30ca:	bf81                	j	301a <__swsetup_r+0x52>
    30cc:	8b89                	andi	a5,a5,2
    30ce:	4701                	li	a4,0
    30d0:	e391                	bnez	a5,30d4 <__swsetup_r+0x10c>
    30d2:	4858                	lw	a4,20(s0)
    30d4:	c418                	sw	a4,8(s0)
    30d6:	bff1                	j	30b2 <__swsetup_r+0xea>

000030d8 <_close_r>:
_close_r():
    30d8:	1141                	addi	sp,sp,-16
    30da:	c422                	sw	s0,8(sp)
    30dc:	842a                	mv	s0,a0
    30de:	852e                	mv	a0,a1
    30e0:	8401aa23          	sw	zero,-1964(gp) # 200040b4 <errno>
    30e4:	c606                	sw	ra,12(sp)
    30e6:	2ea5                	jal	345e <_close>
    30e8:	57fd                	li	a5,-1
    30ea:	00f51763          	bne	a0,a5,30f8 <_close_r+0x20>
    30ee:	85418793          	addi	a5,gp,-1964 # 200040b4 <errno>
    30f2:	439c                	lw	a5,0(a5)
    30f4:	c391                	beqz	a5,30f8 <_close_r+0x20>
    30f6:	c01c                	sw	a5,0(s0)
    30f8:	40b2                	lw	ra,12(sp)
    30fa:	4422                	lw	s0,8(sp)
    30fc:	0141                	addi	sp,sp,16
    30fe:	8082                	ret

00003100 <__sflush_r>:
__sflush_r():
    3100:	00c5d783          	lhu	a5,12(a1)
    3104:	1101                	addi	sp,sp,-32
    3106:	cc22                	sw	s0,24(sp)
    3108:	ca26                	sw	s1,20(sp)
    310a:	ce06                	sw	ra,28(sp)
    310c:	c84a                	sw	s2,16(sp)
    310e:	c64e                	sw	s3,12(sp)
    3110:	0087f713          	andi	a4,a5,8
    3114:	84aa                	mv	s1,a0
    3116:	842e                	mv	s0,a1
    3118:	ef79                	bnez	a4,31f6 <__sflush_r+0xf6>
    311a:	41d8                	lw	a4,4(a1)
    311c:	00e04d63          	bgtz	a4,3136 <__sflush_r+0x36>
    3120:	41b8                	lw	a4,64(a1)
    3122:	00e04a63          	bgtz	a4,3136 <__sflush_r+0x36>
    3126:	4501                	li	a0,0
    3128:	40f2                	lw	ra,28(sp)
    312a:	4462                	lw	s0,24(sp)
    312c:	44d2                	lw	s1,20(sp)
    312e:	4942                	lw	s2,16(sp)
    3130:	49b2                	lw	s3,12(sp)
    3132:	6105                	addi	sp,sp,32
    3134:	8082                	ret
    3136:	5458                	lw	a4,44(s0)
    3138:	d77d                	beqz	a4,3126 <__sflush_r+0x26>
    313a:	0004a903          	lw	s2,0(s1)
    313e:	01379693          	slli	a3,a5,0x13
    3142:	0004a023          	sw	zero,0(s1)
    3146:	0606de63          	bgez	a3,31c2 <__sflush_r+0xc2>
    314a:	4870                	lw	a2,84(s0)
    314c:	00c45783          	lhu	a5,12(s0)
    3150:	8b91                	andi	a5,a5,4
    3152:	c799                	beqz	a5,3160 <__sflush_r+0x60>
    3154:	405c                	lw	a5,4(s0)
    3156:	8e1d                	sub	a2,a2,a5
    3158:	585c                	lw	a5,52(s0)
    315a:	c399                	beqz	a5,3160 <__sflush_r+0x60>
    315c:	403c                	lw	a5,64(s0)
    315e:	8e1d                	sub	a2,a2,a5
    3160:	545c                	lw	a5,44(s0)
    3162:	500c                	lw	a1,32(s0)
    3164:	4681                	li	a3,0
    3166:	8526                	mv	a0,s1
    3168:	9782                	jalr	a5
    316a:	57fd                	li	a5,-1
    316c:	00c45703          	lhu	a4,12(s0)
    3170:	00f51d63          	bne	a0,a5,318a <__sflush_r+0x8a>
    3174:	4094                	lw	a3,0(s1)
    3176:	47f5                	li	a5,29
    3178:	06d7e963          	bltu	a5,a3,31ea <__sflush_r+0xea>
    317c:	204007b7          	lui	a5,0x20400
    3180:	0785                	addi	a5,a5,1
    3182:	00d7d7b3          	srl	a5,a5,a3
    3186:	8b85                	andi	a5,a5,1
    3188:	c3ad                	beqz	a5,31ea <__sflush_r+0xea>
    318a:	481c                	lw	a5,16(s0)
    318c:	00042223          	sw	zero,4(s0)
    3190:	c01c                	sw	a5,0(s0)
    3192:	01371793          	slli	a5,a4,0x13
    3196:	0007d863          	bgez	a5,31a6 <__sflush_r+0xa6>
    319a:	57fd                	li	a5,-1
    319c:	00f51463          	bne	a0,a5,31a4 <__sflush_r+0xa4>
    31a0:	409c                	lw	a5,0(s1)
    31a2:	e391                	bnez	a5,31a6 <__sflush_r+0xa6>
    31a4:	c868                	sw	a0,84(s0)
    31a6:	584c                	lw	a1,52(s0)
    31a8:	0124a023          	sw	s2,0(s1)
    31ac:	ddad                	beqz	a1,3126 <__sflush_r+0x26>
    31ae:	04440793          	addi	a5,s0,68
    31b2:	00f58563          	beq	a1,a5,31bc <__sflush_r+0xbc>
    31b6:	8526                	mv	a0,s1
    31b8:	998ff0ef          	jal	ra,2350 <_free_r>
    31bc:	02042a23          	sw	zero,52(s0)
    31c0:	b79d                	j	3126 <__sflush_r+0x26>
    31c2:	500c                	lw	a1,32(s0)
    31c4:	4601                	li	a2,0
    31c6:	4685                	li	a3,1
    31c8:	8526                	mv	a0,s1
    31ca:	9702                	jalr	a4
    31cc:	57fd                	li	a5,-1
    31ce:	862a                	mv	a2,a0
    31d0:	f6f51ee3          	bne	a0,a5,314c <__sflush_r+0x4c>
    31d4:	409c                	lw	a5,0(s1)
    31d6:	dbbd                	beqz	a5,314c <__sflush_r+0x4c>
    31d8:	4775                	li	a4,29
    31da:	00e78563          	beq	a5,a4,31e4 <__sflush_r+0xe4>
    31de:	4759                	li	a4,22
    31e0:	04e79463          	bne	a5,a4,3228 <__sflush_r+0x128>
    31e4:	0124a023          	sw	s2,0(s1)
    31e8:	bf3d                	j	3126 <__sflush_r+0x26>
    31ea:	04076713          	ori	a4,a4,64
    31ee:	00e41623          	sh	a4,12(s0)
    31f2:	557d                	li	a0,-1
    31f4:	bf15                	j	3128 <__sflush_r+0x28>
    31f6:	0105a983          	lw	s3,16(a1)
    31fa:	f20986e3          	beqz	s3,3126 <__sflush_r+0x26>
    31fe:	0005a903          	lw	s2,0(a1)
    3202:	8b8d                	andi	a5,a5,3
    3204:	0135a023          	sw	s3,0(a1)
    3208:	41390933          	sub	s2,s2,s3
    320c:	4701                	li	a4,0
    320e:	e391                	bnez	a5,3212 <__sflush_r+0x112>
    3210:	49d8                	lw	a4,20(a1)
    3212:	c418                	sw	a4,8(s0)
    3214:	f12059e3          	blez	s2,3126 <__sflush_r+0x26>
    3218:	541c                	lw	a5,40(s0)
    321a:	500c                	lw	a1,32(s0)
    321c:	86ca                	mv	a3,s2
    321e:	864e                	mv	a2,s3
    3220:	8526                	mv	a0,s1
    3222:	9782                	jalr	a5
    3224:	00a04963          	bgtz	a0,3236 <__sflush_r+0x136>
    3228:	00c45783          	lhu	a5,12(s0)
    322c:	0407e793          	ori	a5,a5,64
    3230:	00f41623          	sh	a5,12(s0)
    3234:	bf7d                	j	31f2 <__sflush_r+0xf2>
    3236:	99aa                	add	s3,s3,a0
    3238:	40a90933          	sub	s2,s2,a0
    323c:	bfe1                	j	3214 <__sflush_r+0x114>

0000323e <_fflush_r>:
_fflush_r():
    323e:	499c                	lw	a5,16(a1)
    3240:	c3a5                	beqz	a5,32a0 <_fflush_r+0x62>
    3242:	1101                	addi	sp,sp,-32
    3244:	cc22                	sw	s0,24(sp)
    3246:	ce06                	sw	ra,28(sp)
    3248:	842a                	mv	s0,a0
    324a:	c519                	beqz	a0,3258 <_fflush_r+0x1a>
    324c:	4d1c                	lw	a5,24(a0)
    324e:	e789                	bnez	a5,3258 <_fflush_r+0x1a>
    3250:	c62e                	sw	a1,12(sp)
    3252:	b92ff0ef          	jal	ra,25e4 <__sinit>
    3256:	45b2                	lw	a1,12(sp)
    3258:	00001797          	auipc	a5,0x1
    325c:	f5c78793          	addi	a5,a5,-164 # 41b4 <__sf_fake_stdin>
    3260:	00f59b63          	bne	a1,a5,3276 <_fflush_r+0x38>
    3264:	404c                	lw	a1,4(s0)
    3266:	00c59783          	lh	a5,12(a1)
    326a:	c795                	beqz	a5,3296 <_fflush_r+0x58>
    326c:	8522                	mv	a0,s0
    326e:	4462                	lw	s0,24(sp)
    3270:	40f2                	lw	ra,28(sp)
    3272:	6105                	addi	sp,sp,32
    3274:	b571                	j	3100 <__sflush_r>
    3276:	00001797          	auipc	a5,0x1
    327a:	f5e78793          	addi	a5,a5,-162 # 41d4 <__sf_fake_stdout>
    327e:	00f59463          	bne	a1,a5,3286 <_fflush_r+0x48>
    3282:	440c                	lw	a1,8(s0)
    3284:	b7cd                	j	3266 <_fflush_r+0x28>
    3286:	00001797          	auipc	a5,0x1
    328a:	f0e78793          	addi	a5,a5,-242 # 4194 <__sf_fake_stderr>
    328e:	fcf59ce3          	bne	a1,a5,3266 <_fflush_r+0x28>
    3292:	444c                	lw	a1,12(s0)
    3294:	bfc9                	j	3266 <_fflush_r+0x28>
    3296:	40f2                	lw	ra,28(sp)
    3298:	4462                	lw	s0,24(sp)
    329a:	4501                	li	a0,0
    329c:	6105                	addi	sp,sp,32
    329e:	8082                	ret
    32a0:	4501                	li	a0,0
    32a2:	8082                	ret

000032a4 <_lseek_r>:
_lseek_r():
    32a4:	1141                	addi	sp,sp,-16
    32a6:	c422                	sw	s0,8(sp)
    32a8:	842a                	mv	s0,a0
    32aa:	852e                	mv	a0,a1
    32ac:	85b2                	mv	a1,a2
    32ae:	8636                	mv	a2,a3
    32b0:	8401aa23          	sw	zero,-1964(gp) # 200040b4 <errno>
    32b4:	c606                	sw	ra,12(sp)
    32b6:	22f1                	jal	3482 <_lseek>
    32b8:	57fd                	li	a5,-1
    32ba:	00f51763          	bne	a0,a5,32c8 <_lseek_r+0x24>
    32be:	85418793          	addi	a5,gp,-1964 # 200040b4 <errno>
    32c2:	439c                	lw	a5,0(a5)
    32c4:	c391                	beqz	a5,32c8 <_lseek_r+0x24>
    32c6:	c01c                	sw	a5,0(s0)
    32c8:	40b2                	lw	ra,12(sp)
    32ca:	4422                	lw	s0,8(sp)
    32cc:	0141                	addi	sp,sp,16
    32ce:	8082                	ret

000032d0 <__swhatbuf_r>:
__swhatbuf_r():
    32d0:	7119                	addi	sp,sp,-128
    32d2:	daa6                	sw	s1,116(sp)
    32d4:	84ae                	mv	s1,a1
    32d6:	00e59583          	lh	a1,14(a1)
    32da:	dca2                	sw	s0,120(sp)
    32dc:	de86                	sw	ra,124(sp)
    32de:	8432                	mv	s0,a2
    32e0:	0005dc63          	bgez	a1,32f8 <__swhatbuf_r+0x28>
    32e4:	00c4d783          	lhu	a5,12(s1)
    32e8:	0006a023          	sw	zero,0(a3)
    32ec:	0807f793          	andi	a5,a5,128
    32f0:	e39d                	bnez	a5,3316 <__swhatbuf_r+0x46>
    32f2:	40000793          	li	a5,1024
    32f6:	a015                	j	331a <__swhatbuf_r+0x4a>
    32f8:	0830                	addi	a2,sp,24
    32fa:	c636                	sw	a3,12(sp)
    32fc:	2a01                	jal	340c <_fstat_r>
    32fe:	46b2                	lw	a3,12(sp)
    3300:	fe0542e3          	bltz	a0,32e4 <__swhatbuf_r+0x14>
    3304:	4772                	lw	a4,28(sp)
    3306:	67bd                	lui	a5,0xf
    3308:	8ff9                	and	a5,a5,a4
    330a:	7779                	lui	a4,0xffffe
    330c:	97ba                	add	a5,a5,a4
    330e:	0017b793          	seqz	a5,a5
    3312:	c29c                	sw	a5,0(a3)
    3314:	bff9                	j	32f2 <__swhatbuf_r+0x22>
    3316:	04000793          	li	a5,64
    331a:	c01c                	sw	a5,0(s0)
    331c:	50f6                	lw	ra,124(sp)
    331e:	5466                	lw	s0,120(sp)
    3320:	54d6                	lw	s1,116(sp)
    3322:	4501                	li	a0,0
    3324:	6109                	addi	sp,sp,128
    3326:	8082                	ret

00003328 <__smakebuf_r>:
__smakebuf_r():
    3328:	00c5d783          	lhu	a5,12(a1)
    332c:	1101                	addi	sp,sp,-32
    332e:	cc22                	sw	s0,24(sp)
    3330:	ce06                	sw	ra,28(sp)
    3332:	ca26                	sw	s1,20(sp)
    3334:	c84a                	sw	s2,16(sp)
    3336:	8b89                	andi	a5,a5,2
    3338:	842e                	mv	s0,a1
    333a:	cf89                	beqz	a5,3354 <__smakebuf_r+0x2c>
    333c:	04740793          	addi	a5,s0,71
    3340:	c01c                	sw	a5,0(s0)
    3342:	c81c                	sw	a5,16(s0)
    3344:	4785                	li	a5,1
    3346:	c85c                	sw	a5,20(s0)
    3348:	40f2                	lw	ra,28(sp)
    334a:	4462                	lw	s0,24(sp)
    334c:	44d2                	lw	s1,20(sp)
    334e:	4942                	lw	s2,16(sp)
    3350:	6105                	addi	sp,sp,32
    3352:	8082                	ret
    3354:	0074                	addi	a3,sp,12
    3356:	0030                	addi	a2,sp,8
    3358:	84aa                	mv	s1,a0
    335a:	3f9d                	jal	32d0 <__swhatbuf_r>
    335c:	45a2                	lw	a1,8(sp)
    335e:	892a                	mv	s2,a0
    3360:	8526                	mv	a0,s1
    3362:	892ff0ef          	jal	ra,23f4 <_malloc_r>
    3366:	ed01                	bnez	a0,337e <__smakebuf_r+0x56>
    3368:	00c41783          	lh	a5,12(s0)
    336c:	2007f713          	andi	a4,a5,512
    3370:	ff61                	bnez	a4,3348 <__smakebuf_r+0x20>
    3372:	9bf1                	andi	a5,a5,-4
    3374:	0027e793          	ori	a5,a5,2
    3378:	00f41623          	sh	a5,12(s0)
    337c:	b7c1                	j	333c <__smakebuf_r+0x14>
    337e:	fffff797          	auipc	a5,0xfffff
    3382:	21678793          	addi	a5,a5,534 # 2594 <_cleanup_r>
    3386:	d49c                	sw	a5,40(s1)
    3388:	00c45783          	lhu	a5,12(s0)
    338c:	c008                	sw	a0,0(s0)
    338e:	c808                	sw	a0,16(s0)
    3390:	0807e793          	ori	a5,a5,128
    3394:	00f41623          	sh	a5,12(s0)
    3398:	47a2                	lw	a5,8(sp)
    339a:	c85c                	sw	a5,20(s0)
    339c:	47b2                	lw	a5,12(sp)
    339e:	cf89                	beqz	a5,33b8 <__smakebuf_r+0x90>
    33a0:	00e41583          	lh	a1,14(s0)
    33a4:	8526                	mv	a0,s1
    33a6:	2841                	jal	3436 <_isatty_r>
    33a8:	c901                	beqz	a0,33b8 <__smakebuf_r+0x90>
    33aa:	00c45783          	lhu	a5,12(s0)
    33ae:	9bf1                	andi	a5,a5,-4
    33b0:	0017e793          	ori	a5,a5,1
    33b4:	00f41623          	sh	a5,12(s0)
    33b8:	00c45783          	lhu	a5,12(s0)
    33bc:	00f96933          	or	s2,s2,a5
    33c0:	01241623          	sh	s2,12(s0)
    33c4:	b751                	j	3348 <__smakebuf_r+0x20>

000033c6 <memchr>:
memchr():
    33c6:	0ff5f593          	andi	a1,a1,255
    33ca:	962a                	add	a2,a2,a0
    33cc:	00c51463          	bne	a0,a2,33d4 <memchr+0xe>
    33d0:	4501                	li	a0,0
    33d2:	8082                	ret
    33d4:	00054783          	lbu	a5,0(a0)
    33d8:	feb78de3          	beq	a5,a1,33d2 <memchr+0xc>
    33dc:	0505                	addi	a0,a0,1
    33de:	b7fd                	j	33cc <memchr+0x6>

000033e0 <_read_r>:
_read_r():
    33e0:	1141                	addi	sp,sp,-16
    33e2:	c422                	sw	s0,8(sp)
    33e4:	842a                	mv	s0,a0
    33e6:	852e                	mv	a0,a1
    33e8:	85b2                	mv	a1,a2
    33ea:	8636                	mv	a2,a3
    33ec:	8401aa23          	sw	zero,-1964(gp) # 200040b4 <errno>
    33f0:	c606                	sw	ra,12(sp)
    33f2:	2871                	jal	348e <_read>
    33f4:	57fd                	li	a5,-1
    33f6:	00f51763          	bne	a0,a5,3404 <_read_r+0x24>
    33fa:	85418793          	addi	a5,gp,-1964 # 200040b4 <errno>
    33fe:	439c                	lw	a5,0(a5)
    3400:	c391                	beqz	a5,3404 <_read_r+0x24>
    3402:	c01c                	sw	a5,0(s0)
    3404:	40b2                	lw	ra,12(sp)
    3406:	4422                	lw	s0,8(sp)
    3408:	0141                	addi	sp,sp,16
    340a:	8082                	ret

0000340c <_fstat_r>:
_fstat_r():
    340c:	1141                	addi	sp,sp,-16
    340e:	c422                	sw	s0,8(sp)
    3410:	842a                	mv	s0,a0
    3412:	852e                	mv	a0,a1
    3414:	85b2                	mv	a1,a2
    3416:	8401aa23          	sw	zero,-1964(gp) # 200040b4 <errno>
    341a:	c606                	sw	ra,12(sp)
    341c:	20b9                	jal	346a <_fstat>
    341e:	57fd                	li	a5,-1
    3420:	00f51763          	bne	a0,a5,342e <_fstat_r+0x22>
    3424:	85418793          	addi	a5,gp,-1964 # 200040b4 <errno>
    3428:	439c                	lw	a5,0(a5)
    342a:	c391                	beqz	a5,342e <_fstat_r+0x22>
    342c:	c01c                	sw	a5,0(s0)
    342e:	40b2                	lw	ra,12(sp)
    3430:	4422                	lw	s0,8(sp)
    3432:	0141                	addi	sp,sp,16
    3434:	8082                	ret

00003436 <_isatty_r>:
_isatty_r():
    3436:	1141                	addi	sp,sp,-16
    3438:	c422                	sw	s0,8(sp)
    343a:	842a                	mv	s0,a0
    343c:	852e                	mv	a0,a1
    343e:	8401aa23          	sw	zero,-1964(gp) # 200040b4 <errno>
    3442:	c606                	sw	ra,12(sp)
    3444:	280d                	jal	3476 <_isatty>
    3446:	57fd                	li	a5,-1
    3448:	00f51763          	bne	a0,a5,3456 <_isatty_r+0x20>
    344c:	85418793          	addi	a5,gp,-1964 # 200040b4 <errno>
    3450:	439c                	lw	a5,0(a5)
    3452:	c391                	beqz	a5,3456 <_isatty_r+0x20>
    3454:	c01c                	sw	a5,0(s0)
    3456:	40b2                	lw	ra,12(sp)
    3458:	4422                	lw	s0,8(sp)
    345a:	0141                	addi	sp,sp,16
    345c:	8082                	ret

0000345e <_close>:
_close():
    345e:	05800793          	li	a5,88
    3462:	84f1aa23          	sw	a5,-1964(gp) # 200040b4 <errno>
    3466:	557d                	li	a0,-1
    3468:	8082                	ret

0000346a <_fstat>:
_fstat():
    346a:	05800793          	li	a5,88
    346e:	84f1aa23          	sw	a5,-1964(gp) # 200040b4 <errno>
    3472:	557d                	li	a0,-1
    3474:	8082                	ret

00003476 <_isatty>:
_isatty():
    3476:	05800793          	li	a5,88
    347a:	84f1aa23          	sw	a5,-1964(gp) # 200040b4 <errno>
    347e:	4501                	li	a0,0
    3480:	8082                	ret

00003482 <_lseek>:
_lseek():
    3482:	05800793          	li	a5,88
    3486:	84f1aa23          	sw	a5,-1964(gp) # 200040b4 <errno>
    348a:	557d                	li	a0,-1
    348c:	8082                	ret

0000348e <_read>:
_read():
    348e:	05800793          	li	a5,88
    3492:	84f1aa23          	sw	a5,-1964(gp) # 200040b4 <errno>
    3496:	557d                	li	a0,-1
    3498:	8082                	ret
	...

0000349c <ascii_12x6>:
	...
    34a8:	0000 00fc 0000 0000 0002 0000 0c00 0c02     ................
    34b8:	0002 0000 0000 0000 d090 d0bc 90bc 0300     ................
    34c8:	0300 0000 2418 44fe 008c 0203 0207 0001     .....$.D........
    34d8:	2418 b0d8 804c 0300 0100 0102 38c0 38e4     .$..L........8.8
    34e8:	00e0 0201 0102 0202 0608 0000 0000 0000     ................
    34f8:	0000 0000 0000 f800 0204 0000 0100 0402     ................
    3508:	0200 f804 0000 0400 0102 0000 6090 60f8     .............`.`
    3518:	0090 0000 0001 0000 2020 20fc 0020 0000     ........  .  ...
    3528:	0001 0000 0000 0000 0000 0608 0000 0000     ................
    3538:	2020 2020 0020 0000 0000 0000 0000 0000          ...........
    3548:	0000 0200 0000 0000 8000 1c60 0002 0304     ..........`.....
    3558:	0000 0000 04f8 0404 00f8 0201 0202 0001     ................
    3568:	0800 00fc 0000 0200 0203 0000 8418 2444     ..............D$
    3578:	0018 0203 0202 0002 0408 2424 00d8 0201     ..........$$....
    3588:	0202 0001 b040 fc88 0080 0000 0300 0002     ....@...........
    3598:	243c 2424 00c4 0201 0202 0001 24f8 2c24     <$$$.........$$,
    35a8:	00c0 0201 0202 0001 040c 1ce4 0004 0000     ................
    35b8:	0003 0000 24d8 2424 00d8 0201 0202 0001     .....$$$........
    35c8:	4438 4444 00f8 0300 0202 0001 0000 0010     8DDD............
    35d8:	0000 0000 0002 0000 0000 0020 0000 0000     .......... .....
    35e8:	0006 0000 2000 8850 0204 0000 0000 0201     ..... P.........
    35f8:	9090 9090 0090 0000 0000 0000 0200 8804     ................
    3608:	2050 0200 0001 0000 0418 24c4 0018 0000     P .........$....
    3618:	0002 0000 04f8 94e4 00f8 0201 0202 0002     ................
    3628:	e000 f09c 0080 0302 0000 0203 fc04 2424     ..............$$
    3638:	00d8 0302 0202 0001 04f8 0404 000c 0201     ................
    3648:	0202 0001 fc04 0404 00f8 0302 0202 0001     ................
    3658:	fc04 7424 000c 0302 0202 0003 fc04 7424     ..$t..........$t
    3668:	000c 0302 0002 0000 08f0 4404 40cc 0100     ...........D.@..
    3678:	0202 0001 fc04 2020 04fc 0302 0000 0203     ......  ........
    3688:	0404 04fc 0004 0202 0203 0002 0400 fc04     ................
    3698:	0404 0406 0304 0000 fc04 d024 040c 0302     ..........$.....
    36a8:	0002 0203 fc04 0004 0000 0302 0202 0302     ................
    36b8:	3cfc 3cc0 00fc 0003 0003 0003 fc04 c430     .<.<..........0.
    36c8:	04fc 0302 0002 0003 04f8 0404 00f8 0201     ................
    36d8:	0202 0001 fc04 2424 0018 0302 0002 0000     ......$$........
    36e8:	84f8 0484 00f8 0201 0702 0005 fc04 6424     ..............$d
    36f8:	0098 0302 0002 0203 2418 4424 008c 0203     .........$$D....
    3708:	0202 0001 040c 04fc 000c 0200 0203 0000     ................
    3718:	fc04 0000 04fc 0100 0202 0001 7c04 e080     .............|..
    3728:	041c 0000 0003 0000 e01c e03c 001c 0300     ..........<.....
    3738:	0300 0000 9c04 9c60 0004 0302 0300 0002     ......`.........
    3748:	1c04 1ce0 0004 0200 0203 0000 840c 1c64     ..............d.
    3758:	0004 0302 0202 0003 0000 02fe 0002 0000     ................
    3768:	0407 0004 0e00 c030 0000 0000 0100 0002     ......0.........
    3778:	0200 fe02 0000 0400 0704 0000 0400 0402     ................
	...
    3794:	0000 0808 0808 0808 0000 0002 0000 0000     ................
    37a4:	0000 0000 4000 a0a0 00c0 0100 0202 0203     .....@..........
    37b4:	fc04 2020 00c0 0300 0202 0001 c000 2020     ..  ..........  
    37c4:	0060 0100 0202 0002 c000 2420 00fc 0100     `......... $....
    37d4:	0202 0203 c000 a0a0 00c0 0100 0202 0002     ................
    37e4:	2000 24f8 0424 0200 0203 0002 4000 a0a0     . .$$........@..
    37f4:	2060 0700 0a0a 040a fc04 2020 00c0 0302     ` ........  ....
    3804:	0002 0203 2000 00e4 0000 0200 0203 0000     ..... ..........
    3814:	0000 e420 0000 0808 0708 0000 fc04 e080     .. .............
    3824:	2020 0302 0002 0203 0404 00fc 0000 0202       ..............
    3834:	0203 0002 20e0 20e0 00c0 0003 0003 0003     ..... . ........
    3844:	e020 2020 00c0 0302 0002 0203 c000 2020      .  ..........  
    3854:	00c0 0100 0202 0001 e020 2020 00c0 0f08     ........ .  ....
    3864:	020a 0001 c000 2020 00e0 0100 0a02 080f     ......  ........
    3874:	e020 2040 0020 0302 0002 0000 6000 a0a0      .@  ........`..
    3884:	0020 0200 0202 0003 2000 20f8 0000 0000      ........ . ....
    3894:	0201 0002 e020 2000 00e0 0100 0202 0203     .... .. ........
    38a4:	e020 8020 2060 0000 0103 0000 8060 80e0      . .` ......`...
    38b4:	0060 0300 0300 0000 6020 6080 0020 0302     `....... `.` ...
    38c4:	0300 0002 e020 8020 2060 0808 0107 0000     .... . .` ......
    38d4:	2000 60a0 0020 0200 0203 0002 0000 de20     . .` ......... .
    38e4:	0002 0000 0700 0004 0000 ff00 0000 0000     ................
    38f4:	0f00 0000 0200 20de 0000 0400 0007 0000     ....... ........
    3904:	0102 0402 0204 0000 0000 0000               ............

00003910 <ascii_16x8>:
	...
    3920:	0000 0800 0808 0808 0808 0000 1818 0000     ................
    3930:	4800 246c 0012 0000 0000 0000 0000 0000     .Hl$............
    3940:	0000 2400 2424 127f 1212 127f 1212 0000     ...$$$..........
    3950:	0000 1c08 2a2a 0c0a 2818 2a28 1c2a 0808     ....**...((**...
    3960:	0000 2200 1525 1515 582a 5454 2254 0000     ..."%...*XTTT"..
    3970:	0000 0c00 1212 0a12 2576 1129 6e91 0000     ........v%)..n..
    3980:	0600 0406 0003 0000 0000 0000 0000 0000     ................
    3990:	4000 1020 0810 0808 0808 1008 2010 0040     .@ .......... @.
    39a0:	0200 0804 1008 1010 1010 0810 0408 0002     ................
    39b0:	0000 0000 0808 1c6b 6b1c 0808 0000 0000     ......k..k......
    39c0:	0000 0000 0808 0808 087f 0808 0008 0000     ................
	...
    39dc:	0606 0304 0000 0000 0000 0000 00fe 0000     ................
	...
    39fc:	0606 0000 0000 4080 2040 1020 0810 0408     .......@@  .....
    3a0c:	0204 0002 0000 1800 4224 4242 4242 4242     ........$BBBBBBB
    3a1c:	1824 0000 0000 0800 080e 0808 0808 0808     $...............
    3a2c:	3e08 0000 0000 3c00 4242 2042 1020 0408     .>.....<BBB  ...
    3a3c:	7e42 0000 0000 3c00 4242 1820 4020 4240     B~.....<BB . @@B
    3a4c:	1c22 0000 0000 2000 2830 2424 2222 207e     "...... 0($$""~ 
    3a5c:	7820 0000 0000 7e00 0202 1a02 4026 4240      x.....~....&@@B
    3a6c:	1c22 0000 0000 3800 0224 1a02 4226 4242     "......8$...&BBB
    3a7c:	1824 0000 0000 7e00 2222 1010 0808 0808     $......~""......
    3a8c:	0808 0000 0000 3c00 4242 2442 2418 4242     .......<BBB$.$BB
    3a9c:	3c42 0000 0000 1800 4224 4242 5864 4040     B<......$BBBdX@@
    3aac:	1c24 0000 0000 0000 0000 1818 0000 0000     $...............
    3abc:	1818 0000 0000 0000 0000 0800 0000 0000     ................
    3acc:	0800 0408 0000 4000 1020 0408 0402 1008     .......@ .......
    3adc:	4020 0000 0000 0000 0000 007f 0000 007f      @..............
    3aec:	0000 0000 0000 0200 0804 2010 2040 0810     ........... @ ..
    3afc:	0204 0000 0000 3c00 4242 4046 1020 0010     .......<BBF@ ...
    3b0c:	1818 0000 0000 1c00 5a22 5555 5555 422d     ........"ZUUUU-B
    3b1c:	1c22 0000 0000 0800 1808 1414 3c24 4222     "...........$<"B
    3b2c:	e742 0000 0000 1f00 2222 1e22 4222 4242     B......."""."BBB
    3b3c:	1f22 0000 0000 7c00 4242 0101 0101 4201     "......|BB.....B
    3b4c:	1c22 0000 0000 1f00 4222 4242 4242 4242     "......."BBBBBBB
    3b5c:	1f22 0000 0000 3f00 1242 1e12 1212 4202     "......?B......B
    3b6c:	3f42 0000 0000 3f00 1242 1e12 1212 0202     B?.....?B.......
    3b7c:	0702 0000 0000 3c00 2222 0101 7101 2221     .......<""...q!"
    3b8c:	1c22 0000 0000 e700 4242 4242 427e 4242     ".......BBBB~BBB
    3b9c:	e742 0000 0000 3e00 0808 0808 0808 0808     B......>........
    3bac:	3e08 0000 0000 7c00 1010 1010 1010 1010     .>.....|........
    3bbc:	1010 0f11 0000 7700 1222 0e0a 120a 2212     .......w"......"
    3bcc:	7722 0000 0000 0700 0202 0202 0202 0202     "w..............
    3bdc:	7f42 0000 0000 7700 3636 3636 2a2a 2a2a     B......w6666****
    3bec:	6b2a 0000 0000 e300 4646 4a4a 5252 6252     *k......FFJJRRRb
    3bfc:	4762 0000 0000 1c00 4122 4141 4141 4141     bG......"AAAAAAA
    3c0c:	1c22 0000 0000 3f00 4242 4242 023e 0202     "......?BBBB>...
    3c1c:	0702 0000 0000 1c00 4122 4141 4141 534d     ........"AAAAAMS
    3c2c:	1c32 0060 0000 3f00 4242 3e42 1212 2222     2.`....?BBB>..""
    3c3c:	c742 0000 0000 7c00 4242 0402 2018 4240     B......|BB... @B
    3c4c:	3e42 0000 0000 7f00 0849 0808 0808 0808     B>......I.......
    3c5c:	1c08 0000 0000 e700 4242 4242 4242 4242     ........BBBBBBBB
    3c6c:	3c42 0000 0000 e700 4242 2422 1424 1814     B<......BB"$$...
    3c7c:	0808 0000 0000 6b00 4949 4949 5555 2236     .......kIIIIUU6"
    3c8c:	2222 0000 0000 e700 2442 1824 1818 2424     ""......B$$...$$
    3c9c:	e742 0000 0000 7700 2222 1414 0808 0808     B......w""......
    3cac:	1c08 0000 0000 7e00 2021 1010 0408 4204     .......~! .....B
    3cbc:	3f42 0000 7800 0808 0808 0808 0808 0808     B?...x..........
    3ccc:	0808 0078 0000 0202 0404 0808 1008 2010     ..x............ 
    3cdc:	2020 4040 1e00 1010 1010 1010 1010 1010       @@............
    3cec:	1010 001e 3800 0044 0000 0000 0000 0000     .....8D.........
	...
    3d0c:	0000 ff00 0600 0008 0000 0000 0000 0000     ................
	...
    3d24:	0000 3c00 7842 4244 fc42 0000 0000 0300     ...<BxDBB.......
    3d34:	0202 1a02 4226 4242 1a26 0000 0000 0000     ....&BBB&.......
    3d44:	0000 3800 0244 0202 3844 0000 0000 6000     ...8D...D8.....`
    3d54:	4040 7840 4244 4242 d864 0000 0000 0000     @@@xDBBBd.......
    3d64:	0000 3c00 7e42 0202 3c42 0000 0000 f000     ...<B~..B<......
    3d74:	0888 7e08 0808 0808 3e08 0000 0000 0000     ...~.....>......
    3d84:	0000 7c00 2222 021c 423c 3c42 0000 0300     ...|""..<BB<....
    3d94:	0202 3a02 4246 4242 e742 0000 0000 0c00     ...:FBBBB.......
    3da4:	000c 0e00 0808 0808 3e08 0000 0000 3000     .........>.....0
    3db4:	0030 3800 2020 2020 2020 1e22 0000 0300     0..8      ".....
    3dc4:	0202 7202 0a12 1216 7722 0000 0000 0e00     ...r...."w......
    3dd4:	0808 0808 0808 0808 3e08 0000 0000 0000     .........>......
    3de4:	0000 7f00 9292 9292 b792 0000 0000 0000     ................
    3df4:	0000 3b00 4246 4242 e742 0000 0000 0000     ...;FBBBB.......
    3e04:	0000 3c00 4242 4242 3c42 0000 0000 0000     ...<BBBBB<......
    3e14:	0000 1b00 4226 4242 1e22 0702 0000 0000     ....&BBB".......
    3e24:	0000 7800 4244 4242 7844 e040 0000 0000     ...xDBBBDx@.....
    3e34:	0000 7700 044c 0404 1f04 0000 0000 0000     ...wL...........
    3e44:	0000 7c00 0242 403c 3e42 0000 0000 0000     ...|B.<@B>......
    3e54:	0800 3e08 0808 0808 3008 0000 0000 0000     ...>.....0......
    3e64:	0000 6300 4242 4242 dc62 0000 0000 0000     ...cBBBBb.......
    3e74:	0000 e700 2442 1424 0808 0000 0000 0000     ....B$$.........
    3e84:	0000 eb00 4949 5555 2222 0000 0000 0000     ....IIUU""......
    3e94:	0000 7600 1824 1818 6e24 0000 0000 0000     ...v$...$n......
    3ea4:	0000 e700 2442 1424 0818 0708 0000 0000     ....B$$.........
    3eb4:	0000 7e00 1022 0808 7e44 0000 c000 2020     ...~"...D~....  
    3ec4:	2020 1020 2020 2020 2020 00c0 1010 1010        .      ......
    3ed4:	1010 1010 1010 1010 1010 1010 0600 0808     ................
    3ee4:	0808 1008 0808 0808 0808 0006 320c 00c2     .............2..
	...

00003f00 <ascii_8x6>:
	...
    3f08:	2f00 0000 0000 0007 0007 1400 147f 147f     ./..............
    3f18:	2400 7f2a 122a 6200 0864 2313 3600 5549     .$*.*..bd..#.6IU
    3f28:	5022 0000 0305 0000 0000 221c 0041 0000     "P........."A...
    3f38:	2241 001c 1400 3e08 1408 0800 3e08 0808     A".....>.....>..
    3f48:	0000 a000 0060 0800 0808 0808 0000 6060     ....`.........``
    3f58:	0000 2000 0810 0204 3e00 4951 3e45 0000     ... .....>QIE>..
    3f68:	7f42 0040 4200 5161 4649 2100 4541 314b     B.@..BaQIF.!AEK1
    3f78:	1800 1214 107f 2700 4545 3945 3c00 494a     .......'EEE9.<JI
    3f88:	3049 0100 0971 0305 3600 4949 3649 0600     I0..q....6III6..
    3f98:	4949 1e29 0000 3636 0000 0000 3656 0000     II)...66....V6..
    3fa8:	0800 2214 0041 1400 1414 1414 0000 2241     ..."A.........A"
    3fb8:	0814 0200 5101 0609 3200 5949 3e51 7c00     .....Q...2IYQ>.|
    3fc8:	1112 7c12 7f00 4949 3649 3e00 4141 2241     ...|..III6.>AAA"
    3fd8:	7f00 4141 1c22 7f00 4949 4149 7f00 0909     ..AA"...IIIA....
    3fe8:	0109 3e00 4941 7a49 7f00 0808 7f08 0000     ...>AIIz........
    3ff8:	7f41 0041 2000 4140 013f 7f00 1408 4122     A.A.. @A?....."A
    4008:	7f00 4040 4040 7f00 0c02 7f02 7f00 0804     ..@@@@..........
    4018:	7f10 3e00 4141 3e41 7f00 0909 0609 3e00     ...>AAA>.......>
    4028:	5141 5e21 7f00 1909 4629 4600 4949 3149     AQ!^....)F.FIII1
    4038:	0100 7f01 0101 3f00 4040 3f40 1f00 4020     .......?@@@?.. @
    4048:	1f20 3f00 3840 3f40 6300 0814 6314 0700      ..?@8@?.c...c..
    4058:	7008 0708 6100 4951 4345 0000 417f 0041     .p...aQIEC...AA.
    4068:	5500 552a 552a 0000 4141 007f 0400 0102     .U*U*U..AA......
    4078:	0402 4000 4040 4040 0000 0201 0004 2000     ...@@@@@....... 
    4088:	5454 7854 7f00 4448 3844 3800 4444 2044     TTTx..HDD8.8DDD 
    4098:	3800 4444 7f48 3800 5454 1854 0800 097e     .8DDH..8TTT...~.
    40a8:	0201 1800 a4a4 7ca4 7f00 0408 7804 0000     .......|.....x..
    40b8:	7d44 0040 4000 8480 007d 7f00 2810 0044     D}@..@..}....(D.
    40c8:	0000 7f41 0040 7c00 1804 7804 7c00 0408     ..A.@..|...x.|..
    40d8:	7804 3800 4444 3844 fc00 2424 1824 1800     .x.8DDD8..$$$...
    40e8:	2424 fc18 7c00 0408 0804 4800 5454 2054     $$...|.....HTTT 
    40f8:	0400 443f 2040 3c00 4040 7c20 1c00 4020     ..?D@ .<@@ |.. @
    4108:	1c20 3c00 3040 3c40 4400 1028 4428 1c00      ..<@0@<.D(.(D..
    4118:	a0a0 7ca0 4400 5464 444c 1414 1414 1414     ...|.DdTLD......
    4128:	7453 7261 2074 4340 6968 4970 3d44 3025     Start @ChipID=%0
    4138:	5832 000a 6f6e 2077 5453 3737 3938 3376     2X..now ST7789v3
    4148:	0000 0000 6f6e 2077 5453 3737 3533 0053     ....now ST7735S.
    4158:	6f46 746e 3120 0036 6f6c 706f 2520 0a64     Font 16.loop %d.
    4168:	0000 0000 df30 ffff df58 ffff df80 ffff     ....0...X.......
    4178:	df98 ffff dfb2 ffff dfc2 ffff dfea ffff     ................
    4188:	e012 ffff e02a ffff e044 ffff               ....*...D...

00004194 <__sf_fake_stderr>:
	...

000041b4 <__sf_fake_stdin>:
	...

000041d4 <__sf_fake_stdout>:
	...
    41f4:	2d23 2b30 0020 0000 6c68 004c 6665 4567     #-0+ ...hlL.efgE
    4204:	4746 0000 3130 3332 3534 3736 3938 4241     FG..0123456789AB
    4214:	4443 4645 0000 0000 3130 3332 3534 3736     CDEF....01234567
    4224:	3938 6261 6463 6665 0000 0000               89abcdef....

00004230 <afont12x6>:
    4230:	060c 0000 349c 0000                         .....4..

00004238 <afont16x8>:
    4238:	0810 0000 3910 0000                         .....9..

00004240 <afont8x6>:
    4240:	0608 0000 3f00 0000                         .....?..

00004248 <_global_impure_ptr>:
    4248:	4000 2000                                   .@. 
